Component: ARM Compiler 5.06 update 6 (build 750) Tool: armlink [4d35ed]

==============================================================================

Section Cross References

    main.o(i.main) refers to pin.o(i.rt_pin_mode) for rt_pin_mode
    main.o(i.main) refers to my_iap.o(i.iap_thread_init) for iap_thread_init
    main.o(i.main) refers to pin.o(i.rt_pin_write) for rt_pin_write
    main.o(i.main) refers to thread.o(i.rt_thread_mdelay) for rt_thread_mdelay
    my_flash.o(i.iap_re_write_user_code) refers to stm32f1xx_hal_flash.o(i.HAL_FLASH_Unlock) for HAL_FLASH_Unlock
    my_flash.o(i.iap_re_write_user_code) refers to stm32f1xx_hal_flash_ex.o(i.HAL_FLASHEx_Erase) for HAL_FLASHEx_Erase
    my_flash.o(i.iap_re_write_user_code) refers to my_flash.o(i.my_read_from_flash) for my_read_from_flash
    my_flash.o(i.iap_re_write_user_code) refers to my_flash.o(i.my_write_to_flash) for my_write_to_flash
    my_flash.o(i.iap_re_write_user_code) refers to stm32f1xx_hal_flash.o(i.HAL_FLASH_Lock) for HAL_FLASH_Lock
    my_flash.o(i.iap_re_write_user_code) refers to my_iap.o(.bss) for MyIapMap
    my_flash.o(i.iap_re_write_user_code) refers to my_flash.o(.bss) for my_buffer
    my_flash.o(i.my_erase_pages) refers to my_flash.o(i.my_calculate_page_num) for my_calculate_page_num
    my_flash.o(i.my_erase_pages) refers to stm32f1xx_hal_flash.o(i.HAL_FLASH_Unlock) for HAL_FLASH_Unlock
    my_flash.o(i.my_erase_pages) refers to stm32f1xx_hal_flash_ex.o(i.HAL_FLASHEx_Erase) for HAL_FLASHEx_Erase
    my_flash.o(i.my_erase_pages) refers to stm32f1xx_hal_flash.o(i.HAL_FLASH_Lock) for HAL_FLASH_Lock
    my_flash.o(i.my_erase_write_to_flash) refers to my_flash.o(i.my_erase_pages) for my_erase_pages
    my_flash.o(i.my_erase_write_to_flash) refers to stm32f1xx_hal_flash.o(i.HAL_FLASH_Unlock) for HAL_FLASH_Unlock
    my_flash.o(i.my_erase_write_to_flash) refers to stm32f1xx_hal_flash.o(i.HAL_FLASH_Program) for HAL_FLASH_Program
    my_flash.o(i.my_erase_write_to_flash) refers to stm32f1xx_hal_flash.o(i.HAL_FLASH_Lock) for HAL_FLASH_Lock
    my_flash.o(i.my_read_erase_write_to_flash) refers to my_flash.o(i.my_erase_pages) for my_erase_pages
    my_flash.o(i.my_read_erase_write_to_flash) refers to stm32f1xx_hal_flash.o(i.HAL_FLASH_Unlock) for HAL_FLASH_Unlock
    my_flash.o(i.my_read_erase_write_to_flash) refers to stm32f1xx_hal_flash.o(i.HAL_FLASH_Program) for HAL_FLASH_Program
    my_flash.o(i.my_read_erase_write_to_flash) refers to stm32f1xx_hal_flash.o(i.HAL_FLASH_Lock) for HAL_FLASH_Lock
    my_flash.o(i.my_write_to_flash) refers to stm32f1xx_hal_flash.o(i.HAL_FLASH_Unlock) for HAL_FLASH_Unlock
    my_flash.o(i.my_write_to_flash) refers to stm32f1xx_hal_flash.o(i.HAL_FLASH_Program) for HAL_FLASH_Program
    my_flash.o(i.my_write_to_flash) refers to stm32f1xx_hal_flash.o(i.HAL_FLASH_Lock) for HAL_FLASH_Lock
    my_iap.o(i.Iap_Map_Init) refers to my_iap.o(.bss) for MyIapMap
    my_iap.o(i.LedRun) refers to clock.o(i.rt_tick_get) for rt_tick_get
    my_iap.o(i.LedRun) refers to stm32f1xx_hal_gpio.o(i.HAL_GPIO_WritePin) for HAL_GPIO_WritePin
    my_iap.o(i.LedRun) refers to my_iap.o(.data) for Led_status
    my_iap.o(i.MX_GPIO_Init) refers to stm32f1xx_hal_gpio.o(i.HAL_GPIO_Init) for HAL_GPIO_Init
    my_iap.o(i.MX_GPIO_Init) refers to stm32f1xx_hal_gpio.o(i.HAL_GPIO_WritePin) for HAL_GPIO_WritePin
    my_iap.o(i.dev_iap_uart_func) refers to device.o(i.rt_device_read) for rt_device_read
    my_iap.o(i.dev_iap_uart_func) refers to thread.o(i.rt_thread_mdelay) for rt_thread_mdelay
    my_iap.o(i.dev_iap_uart_func) refers to my_iap.o(.data) for rxcnt
    my_iap.o(i.iap_jump_to_user_app) refers to context_rvds.o(.text) for rt_hw_interrupt_disable
    my_iap.o(i.iap_jump_to_user_app) refers to my_iap.o(.bss) for MyIapMap
    my_iap.o(i.iap_jump_to_user_app) refers to my_iap.o(.data) for JumpAddress
    my_iap.o(i.iap_main_entry) refers to device.o(i.rt_device_find) for rt_device_find
    my_iap.o(i.iap_main_entry) refers to device.o(i.rt_device_open) for rt_device_open
    my_iap.o(i.iap_main_entry) refers to device.o(i.rt_device_set_rx_indicate) for rt_device_set_rx_indicate
    my_iap.o(i.iap_main_entry) refers to thread.o(i.rt_thread_mdelay) for rt_thread_mdelay
    my_iap.o(i.iap_main_entry) refers to my_flash.o(i.my_read_from_flash) for my_read_from_flash
    my_iap.o(i.iap_main_entry) refers to my_flash.o(i.iap_re_write_user_code) for iap_re_write_user_code
    my_iap.o(i.iap_main_entry) refers to my_flash.o(i.my_erase_write_to_flash) for my_erase_write_to_flash
    my_iap.o(i.iap_main_entry) refers to my_iap.o(i.iap_jump_to_user_app) for iap_jump_to_user_app
    my_iap.o(i.iap_main_entry) refers to my_iap.o(i.dev_iap_uart_func) for dev_iap_uart_func
    my_iap.o(i.iap_main_entry) refers to my_iap.o(.data) for Led_status
    my_iap.o(i.iap_main_entry) refers to my_iap.o(.bss) for MyIapMap
    my_iap.o(i.iap_thread_init) refers to my_iap.o(i.Iap_Map_Init) for Iap_Map_Init
    my_iap.o(i.iap_thread_init) refers to my_iap.o(i.MX_GPIO_Init) for MX_GPIO_Init
    my_iap.o(i.iap_thread_init) refers to thread.o(i.rt_thread_create) for rt_thread_create
    my_iap.o(i.iap_thread_init) refers to thread.o(i.rt_thread_startup) for rt_thread_startup
    my_iap.o(i.iap_thread_init) refers to my_iap.o(i.led_display_entry) for led_display_entry
    my_iap.o(i.iap_thread_init) refers to my_iap.o(.data) for tid
    my_iap.o(i.iap_thread_init) refers to my_iap.o(i.iap_main_entry) for iap_main_entry
    my_iap.o(i.led_display_entry) refers to my_iap.o(i.LedRun) for LedRun
    my_iap.o(i.led_display_entry) refers to thread.o(i.rt_thread_mdelay) for rt_thread_mdelay
    my_iap.o(i.start_up_init) refers to my_flash.o(i.my_erase_write_to_flash) for my_erase_write_to_flash
    my_iap.o(i.start_up_init) refers to my_iap.o(.bss) for MyIapFlag
    my_uart.o(i.HAL_UART_RxCpltCallback) refers to my_uart.o(.data) for My_RxBuffer
    my_uart.o(i.HAL_UART_RxCpltCallback) refers to my_uart.o(.bss) for USART_RX_BUF
    stm32f1xx_hal_msp.o(i.HAL_SD_MspDeInit) refers to stm32f1xx_hal_gpio.o(i.HAL_GPIO_DeInit) for HAL_GPIO_DeInit
    stm32f1xx_hal_msp.o(i.HAL_SD_MspInit) refers to stm32f1xx_hal_gpio.o(i.HAL_GPIO_Init) for HAL_GPIO_Init
    stm32f1xx_hal_msp.o(i.HAL_TIM_MspPostInit) refers to stm32f1xx_hal_gpio.o(i.HAL_GPIO_Init) for HAL_GPIO_Init
    stm32f1xx_hal_msp.o(i.HAL_UART_MspDeInit) refers to stm32f1xx_hal_gpio.o(i.HAL_GPIO_DeInit) for HAL_GPIO_DeInit
    stm32f1xx_hal_msp.o(i.HAL_UART_MspInit) refers to stm32f1xx_hal_gpio.o(i.HAL_GPIO_Init) for HAL_GPIO_Init
    cpuport.o(i.rt_hw_exception_install) refers to cpuport.o(.data) for rt_exception_hook
    cpuport.o(i.rt_hw_hard_fault_exception) refers to cpuport.o(.data) for rt_exception_hook
    context_rvds.o(.text) refers to cpuport.o(i.rt_hw_hard_fault_exception) for rt_hw_hard_fault_exception
    context_rvds.o(.text) refers to cpuport.o(.data) for rt_thread_switch_interrupt_flag
    time.o(i.asctime) refers to time.o(i.asctime_r) for asctime_r
    time.o(i.asctime) refers to time.o(.bss) for buf
    time.o(i.asctime_r) refers to time.o(i.num2str) for num2str
    time.o(i.asctime_r) refers to time.o(.constdata) for days
    time.o(i.clock) refers to clock.o(i.rt_tick_get) for rt_tick_get
    time.o(i.ctime) refers to time.o(i.localtime) for localtime
    time.o(i.ctime) refers to time.o(i.asctime) for asctime
    time.o(i.gettimeofday) refers to device.o(i.rt_device_find) for rt_device_find
    time.o(i.gettimeofday) refers to device.o(i.rt_device_control) for rt_device_control
    time.o(i.gmtime) refers to time.o(i.gmtime_r) for gmtime_r
    time.o(i.gmtime) refers to time.o(.bss) for tmp
    time.o(i.gmtime_r) refers to time.o(i.__isleap) for __isleap
    time.o(i.gmtime_r) refers to time.o(.constdata) for __spm
    time.o(i.localtime) refers to time.o(i.localtime_r) for localtime_r
    time.o(i.localtime) refers to time.o(.bss) for tmp
    time.o(i.localtime_r) refers to time.o(i.gmtime_r) for gmtime_r
    time.o(i.mktime) refers to time.o(i.__isleap) for __isleap
    time.o(i.mktime) refers to time.o(.constdata) for __spm
    clock.o(i.rt_tick_get) refers to clock.o(.data) for rt_tick
    clock.o(i.rt_tick_increase) refers to thread.o(i.rt_thread_self) for rt_thread_self
    clock.o(i.rt_tick_increase) refers to thread.o(i.rt_thread_yield) for rt_thread_yield
    clock.o(i.rt_tick_increase) refers to timer.o(i.rt_timer_check) for rt_timer_check
    clock.o(i.rt_tick_increase) refers to clock.o(.data) for rt_tick
    clock.o(i.rt_tick_set) refers to context_rvds.o(.text) for rt_hw_interrupt_disable
    clock.o(i.rt_tick_set) refers to clock.o(.data) for rt_tick
    components.o(i.$Sub$$main) refers to components.o(i.rtthread_startup) for rtthread_startup
    components.o(i.main_thread_entry) refers to components.o(i.rt_components_init) for rt_components_init
    components.o(i.main_thread_entry) refers to main.o(i.main) for $Super$$main
    components.o(i.rt_application_init) refers to thread.o(i.rt_thread_create) for rt_thread_create
    components.o(i.rt_application_init) refers to thread.o(i.rt_thread_startup) for rt_thread_startup
    components.o(i.rt_application_init) refers to components.o(i.main_thread_entry) for main_thread_entry
    components.o(i.rt_components_board_init) refers to components.o(.rti_fn.0.end) for __rt_init_rti_board_start
    components.o(i.rt_components_board_init) refers to components.o(.rti_fn.1.end) for __rt_init_rti_board_end
    components.o(i.rt_components_init) refers to components.o(.rti_fn.1.end) for __rt_init_rti_board_end
    components.o(i.rt_components_init) refers to components.o(.rti_fn.6.end) for __rt_init_rti_end
    components.o(i.rtthread_startup) refers to context_rvds.o(.text) for rt_hw_interrupt_disable
    components.o(i.rtthread_startup) refers to drv_common.o(i.rt_hw_board_init) for rt_hw_board_init
    components.o(i.rtthread_startup) refers to kservice.o(i.rt_show_version) for rt_show_version
    components.o(i.rtthread_startup) refers to timer.o(i.rt_system_timer_init) for rt_system_timer_init
    components.o(i.rtthread_startup) refers to scheduler.o(i.rt_system_scheduler_init) for rt_system_scheduler_init
    components.o(i.rtthread_startup) refers to components.o(i.rt_application_init) for rt_application_init
    components.o(i.rtthread_startup) refers to timer.o(i.rt_system_timer_thread_init) for rt_system_timer_thread_init
    components.o(i.rtthread_startup) refers to idle.o(i.rt_thread_idle_init) for rt_thread_idle_init
    components.o(i.rtthread_startup) refers to scheduler.o(i.rt_system_scheduler_start) for rt_system_scheduler_start
    components.o(.rti_fn.0) refers to components.o(i.rti_start) for rti_start
    components.o(.rti_fn.0.end) refers to components.o(i.rti_board_start) for rti_board_start
    components.o(.rti_fn.1.end) refers to components.o(i.rti_board_end) for rti_board_end
    components.o(.rti_fn.6.end) refers to components.o(i.rti_end) for rti_end
    device.o(i.rt_device_create) refers to mem.o(i.rt_malloc) for rt_malloc
    device.o(i.rt_device_create) refers to kservice.o(i.rt_memset) for rt_memset
    device.o(i.rt_device_destroy) refers to object.o(i.rt_object_detach) for rt_object_detach
    device.o(i.rt_device_destroy) refers to mem.o(i.rt_free) for rt_free
    device.o(i.rt_device_find) refers to thread.o(i.rt_thread_self) for rt_thread_self
    device.o(i.rt_device_find) refers to scheduler.o(i.rt_enter_critical) for rt_enter_critical
    device.o(i.rt_device_find) refers to object.o(i.rt_object_get_information) for rt_object_get_information
    device.o(i.rt_device_find) refers to kservice.o(i.rt_strncmp) for rt_strncmp
    device.o(i.rt_device_find) refers to scheduler.o(i.rt_exit_critical) for rt_exit_critical
    device.o(i.rt_device_read) refers to kservice.o(i.rt_set_errno) for rt_set_errno
    device.o(i.rt_device_register) refers to device.o(i.rt_device_find) for rt_device_find
    device.o(i.rt_device_register) refers to object.o(i.rt_object_init) for rt_object_init
    device.o(i.rt_device_unregister) refers to object.o(i.rt_object_detach) for rt_object_detach
    device.o(i.rt_device_write) refers to kservice.o(i.rt_set_errno) for rt_set_errno
    idle.o(i._has_defunct_thread) refers to scheduler.o(.data) for rt_thread_defunct
    idle.o(i.rt_thread_idle_entry) refers to idle.o(i.rt_thread_idle_excute) for rt_thread_idle_excute
    idle.o(i.rt_thread_idle_excute) refers to context_rvds.o(.text) for rt_hw_interrupt_disable
    idle.o(i.rt_thread_idle_excute) refers to idle.o(i._has_defunct_thread) for _has_defunct_thread
    idle.o(i.rt_thread_idle_excute) refers to scheduler.o(i.rt_enter_critical) for rt_enter_critical
    idle.o(i.rt_thread_idle_excute) refers to object.o(i.rt_object_is_systemobject) for rt_object_is_systemobject
    idle.o(i.rt_thread_idle_excute) refers to object.o(i.rt_object_detach) for rt_object_detach
    idle.o(i.rt_thread_idle_excute) refers to scheduler.o(i.rt_exit_critical) for rt_exit_critical
    idle.o(i.rt_thread_idle_excute) refers to mem.o(i.rt_free) for rt_free
    idle.o(i.rt_thread_idle_excute) refers to object.o(i.rt_object_delete) for rt_object_delete
    idle.o(i.rt_thread_idle_excute) refers to scheduler.o(.data) for rt_thread_defunct
    idle.o(i.rt_thread_idle_gethandler) refers to idle.o(.bss) for idle
    idle.o(i.rt_thread_idle_init) refers to kservice.o(i.rt_sprintf) for rt_sprintf
    idle.o(i.rt_thread_idle_init) refers to thread.o(i.rt_thread_init) for rt_thread_init
    idle.o(i.rt_thread_idle_init) refers to thread.o(i.rt_thread_startup) for rt_thread_startup
    idle.o(i.rt_thread_idle_init) refers to idle.o(.bss) for rt_thread_stack
    idle.o(i.rt_thread_idle_init) refers to idle.o(i.rt_thread_idle_entry) for rt_thread_idle_entry
    ipc.o(i.rt_event_control) refers to context_rvds.o(.text) for rt_hw_interrupt_disable
    ipc.o(i.rt_event_control) refers to ipc.o(i.rt_ipc_list_resume_all) for rt_ipc_list_resume_all
    ipc.o(i.rt_event_control) refers to scheduler.o(i.rt_schedule) for rt_schedule
    ipc.o(i.rt_event_create) refers to object.o(i.rt_object_allocate) for rt_object_allocate
    ipc.o(i.rt_event_create) refers to ipc.o(i.rt_ipc_object_init) for rt_ipc_object_init
    ipc.o(i.rt_event_delete) refers to ipc.o(i.rt_ipc_list_resume_all) for rt_ipc_list_resume_all
    ipc.o(i.rt_event_delete) refers to object.o(i.rt_object_delete) for rt_object_delete
    ipc.o(i.rt_event_detach) refers to ipc.o(i.rt_ipc_list_resume_all) for rt_ipc_list_resume_all
    ipc.o(i.rt_event_detach) refers to object.o(i.rt_object_detach) for rt_object_detach
    ipc.o(i.rt_event_init) refers to object.o(i.rt_object_init) for rt_object_init
    ipc.o(i.rt_event_init) refers to ipc.o(i.rt_ipc_object_init) for rt_ipc_object_init
    ipc.o(i.rt_event_recv) refers to thread.o(i.rt_thread_self) for rt_thread_self
    ipc.o(i.rt_event_recv) refers to context_rvds.o(.text) for rt_hw_interrupt_disable
    ipc.o(i.rt_event_recv) refers to ipc.o(i.rt_ipc_list_suspend) for rt_ipc_list_suspend
    ipc.o(i.rt_event_recv) refers to timer.o(i.rt_timer_control) for rt_timer_control
    ipc.o(i.rt_event_recv) refers to timer.o(i.rt_timer_start) for rt_timer_start
    ipc.o(i.rt_event_recv) refers to scheduler.o(i.rt_schedule) for rt_schedule
    ipc.o(i.rt_event_send) refers to context_rvds.o(.text) for rt_hw_interrupt_disable
    ipc.o(i.rt_event_send) refers to ipc.o(i.rt_list_isempty) for rt_list_isempty
    ipc.o(i.rt_event_send) refers to thread.o(i.rt_thread_resume) for rt_thread_resume
    ipc.o(i.rt_event_send) refers to scheduler.o(i.rt_schedule) for rt_schedule
    ipc.o(i.rt_ipc_list_resume) refers to thread.o(i.rt_thread_resume) for rt_thread_resume
    ipc.o(i.rt_ipc_list_resume_all) refers to context_rvds.o(.text) for rt_hw_interrupt_disable
    ipc.o(i.rt_ipc_list_resume_all) refers to thread.o(i.rt_thread_resume) for rt_thread_resume
    ipc.o(i.rt_ipc_list_resume_all) refers to ipc.o(i.rt_list_isempty) for rt_list_isempty
    ipc.o(i.rt_ipc_list_suspend) refers to thread.o(i.rt_thread_suspend) for rt_thread_suspend
    ipc.o(i.rt_ipc_list_suspend) refers to ipc.o(i.rt_list_insert_before) for rt_list_insert_before
    ipc.o(i.rt_mutex_create) refers to object.o(i.rt_object_allocate) for rt_object_allocate
    ipc.o(i.rt_mutex_create) refers to ipc.o(i.rt_ipc_object_init) for rt_ipc_object_init
    ipc.o(i.rt_mutex_delete) refers to ipc.o(i.rt_ipc_list_resume_all) for rt_ipc_list_resume_all
    ipc.o(i.rt_mutex_delete) refers to object.o(i.rt_object_delete) for rt_object_delete
    ipc.o(i.rt_mutex_detach) refers to ipc.o(i.rt_ipc_list_resume_all) for rt_ipc_list_resume_all
    ipc.o(i.rt_mutex_detach) refers to object.o(i.rt_object_detach) for rt_object_detach
    ipc.o(i.rt_mutex_init) refers to object.o(i.rt_object_init) for rt_object_init
    ipc.o(i.rt_mutex_init) refers to ipc.o(i.rt_ipc_object_init) for rt_ipc_object_init
    ipc.o(i.rt_mutex_release) refers to thread.o(i.rt_thread_self) for rt_thread_self
    ipc.o(i.rt_mutex_release) refers to context_rvds.o(.text) for rt_hw_interrupt_disable
    ipc.o(i.rt_mutex_release) refers to thread.o(i.rt_thread_control) for rt_thread_control
    ipc.o(i.rt_mutex_release) refers to ipc.o(i.rt_list_isempty) for rt_list_isempty
    ipc.o(i.rt_mutex_release) refers to ipc.o(i.rt_ipc_list_resume) for rt_ipc_list_resume
    ipc.o(i.rt_mutex_release) refers to scheduler.o(i.rt_schedule) for rt_schedule
    ipc.o(i.rt_mutex_take) refers to thread.o(i.rt_thread_self) for rt_thread_self
    ipc.o(i.rt_mutex_take) refers to context_rvds.o(.text) for rt_hw_interrupt_disable
    ipc.o(i.rt_mutex_take) refers to thread.o(i.rt_thread_control) for rt_thread_control
    ipc.o(i.rt_mutex_take) refers to ipc.o(i.rt_ipc_list_suspend) for rt_ipc_list_suspend
    ipc.o(i.rt_mutex_take) refers to timer.o(i.rt_timer_control) for rt_timer_control
    ipc.o(i.rt_mutex_take) refers to timer.o(i.rt_timer_start) for rt_timer_start
    ipc.o(i.rt_mutex_take) refers to scheduler.o(i.rt_schedule) for rt_schedule
    ipc.o(i.rt_sem_control) refers to context_rvds.o(.text) for rt_hw_interrupt_disable
    ipc.o(i.rt_sem_control) refers to ipc.o(i.rt_ipc_list_resume_all) for rt_ipc_list_resume_all
    ipc.o(i.rt_sem_control) refers to scheduler.o(i.rt_schedule) for rt_schedule
    ipc.o(i.rt_sem_create) refers to object.o(i.rt_object_allocate) for rt_object_allocate
    ipc.o(i.rt_sem_create) refers to ipc.o(i.rt_ipc_object_init) for rt_ipc_object_init
    ipc.o(i.rt_sem_delete) refers to ipc.o(i.rt_ipc_list_resume_all) for rt_ipc_list_resume_all
    ipc.o(i.rt_sem_delete) refers to object.o(i.rt_object_delete) for rt_object_delete
    ipc.o(i.rt_sem_detach) refers to ipc.o(i.rt_ipc_list_resume_all) for rt_ipc_list_resume_all
    ipc.o(i.rt_sem_detach) refers to object.o(i.rt_object_detach) for rt_object_detach
    ipc.o(i.rt_sem_init) refers to object.o(i.rt_object_init) for rt_object_init
    ipc.o(i.rt_sem_init) refers to ipc.o(i.rt_ipc_object_init) for rt_ipc_object_init
    ipc.o(i.rt_sem_release) refers to context_rvds.o(.text) for rt_hw_interrupt_disable
    ipc.o(i.rt_sem_release) refers to ipc.o(i.rt_list_isempty) for rt_list_isempty
    ipc.o(i.rt_sem_release) refers to ipc.o(i.rt_ipc_list_resume) for rt_ipc_list_resume
    ipc.o(i.rt_sem_release) refers to scheduler.o(i.rt_schedule) for rt_schedule
    ipc.o(i.rt_sem_take) refers to context_rvds.o(.text) for rt_hw_interrupt_disable
    ipc.o(i.rt_sem_take) refers to thread.o(i.rt_thread_self) for rt_thread_self
    ipc.o(i.rt_sem_take) refers to ipc.o(i.rt_ipc_list_suspend) for rt_ipc_list_suspend
    ipc.o(i.rt_sem_take) refers to timer.o(i.rt_timer_control) for rt_timer_control
    ipc.o(i.rt_sem_take) refers to timer.o(i.rt_timer_start) for rt_timer_start
    ipc.o(i.rt_sem_take) refers to scheduler.o(i.rt_schedule) for rt_schedule
    ipc.o(i.rt_sem_trytake) refers to ipc.o(i.rt_sem_take) for rt_sem_take
    irq.o(i.rt_interrupt_enter) refers to context_rvds.o(.text) for rt_hw_interrupt_disable
    irq.o(i.rt_interrupt_enter) refers to irq.o(.data) for rt_interrupt_nest
    irq.o(i.rt_interrupt_get_nest) refers to context_rvds.o(.text) for rt_hw_interrupt_disable
    irq.o(i.rt_interrupt_get_nest) refers to irq.o(.data) for rt_interrupt_nest
    irq.o(i.rt_interrupt_leave) refers to context_rvds.o(.text) for rt_hw_interrupt_disable
    irq.o(i.rt_interrupt_leave) refers to irq.o(.data) for rt_interrupt_nest
    kservice.o(i._rt_errno) refers to irq.o(i.rt_interrupt_get_nest) for rt_interrupt_get_nest
    kservice.o(i._rt_errno) refers to thread.o(i.rt_thread_self) for rt_thread_self
    kservice.o(i._rt_errno) refers to kservice.o(.data) for __rt_errno
    kservice.o(i.print_number) refers to kservice.o(.constdata) for large_digits
    kservice.o(i.rt_free_align) refers to mem.o(i.rt_free) for rt_free
    kservice.o(i.rt_get_errno) refers to irq.o(i.rt_interrupt_get_nest) for rt_interrupt_get_nest
    kservice.o(i.rt_get_errno) refers to thread.o(i.rt_thread_self) for rt_thread_self
    kservice.o(i.rt_get_errno) refers to kservice.o(.data) for __rt_errno
    kservice.o(i.rt_malloc_align) refers to mem.o(i.rt_malloc) for rt_malloc
    kservice.o(i.rt_set_errno) refers to irq.o(i.rt_interrupt_get_nest) for rt_interrupt_get_nest
    kservice.o(i.rt_set_errno) refers to thread.o(i.rt_thread_self) for rt_thread_self
    kservice.o(i.rt_set_errno) refers to kservice.o(.data) for __rt_errno
    kservice.o(i.rt_snprintf) refers to kservice.o(i.rt_vsnprintf) for rt_vsnprintf
    kservice.o(i.rt_sprintf) refers to kservice.o(i.rt_vsprintf) for rt_vsprintf
    kservice.o(i.rt_strdup) refers to kservice.o(i.rt_strlen) for rt_strlen
    kservice.o(i.rt_strdup) refers to mem.o(i.rt_malloc) for rt_malloc
    kservice.o(i.rt_strdup) refers to kservice.o(i.rt_memcpy) for rt_memcpy
    kservice.o(i.rt_strstr) refers to kservice.o(i.rt_strlen) for rt_strlen
    kservice.o(i.rt_strstr) refers to kservice.o(i.rt_memcmp) for rt_memcmp
    kservice.o(i.rt_vsnprintf) refers to kservice.o(i.skip_atoi) for skip_atoi
    kservice.o(i.rt_vsnprintf) refers to kservice.o(i.rt_strlen) for rt_strlen
    kservice.o(i.rt_vsnprintf) refers to kservice.o(i.print_number) for print_number
    kservice.o(i.rt_vsprintf) refers to kservice.o(i.rt_vsnprintf) for rt_vsnprintf
    mem.o(i.plug_holes) refers to mem.o(.data) for heap_ptr
    mem.o(i.rt_calloc) refers to mem.o(i.rt_malloc) for rt_malloc
    mem.o(i.rt_calloc) refers to kservice.o(i.rt_memset) for rt_memset
    mem.o(i.rt_free) refers to ipc.o(i.rt_sem_take) for rt_sem_take
    mem.o(i.rt_free) refers to mem.o(i.plug_holes) for plug_holes
    mem.o(i.rt_free) refers to ipc.o(i.rt_sem_release) for rt_sem_release
    mem.o(i.rt_free) refers to mem.o(.data) for heap_ptr
    mem.o(i.rt_free) refers to mem.o(.bss) for heap_sem
    mem.o(i.rt_malloc) refers to ipc.o(i.rt_sem_take) for rt_sem_take
    mem.o(i.rt_malloc) refers to ipc.o(i.rt_sem_release) for rt_sem_release
    mem.o(i.rt_malloc) refers to mem.o(.data) for mem_size_aligned
    mem.o(i.rt_malloc) refers to mem.o(.bss) for heap_sem
    mem.o(i.rt_memory_info) refers to mem.o(.data) for mem_size_aligned
    mem.o(i.rt_realloc) refers to mem.o(i.rt_free) for rt_free
    mem.o(i.rt_realloc) refers to mem.o(i.rt_malloc) for rt_malloc
    mem.o(i.rt_realloc) refers to ipc.o(i.rt_sem_take) for rt_sem_take
    mem.o(i.rt_realloc) refers to ipc.o(i.rt_sem_release) for rt_sem_release
    mem.o(i.rt_realloc) refers to mem.o(i.plug_holes) for plug_holes
    mem.o(i.rt_realloc) refers to kservice.o(i.rt_memcpy) for rt_memcpy
    mem.o(i.rt_realloc) refers to mem.o(.data) for mem_size_aligned
    mem.o(i.rt_realloc) refers to mem.o(.bss) for heap_sem
    mem.o(i.rt_system_heap_init) refers to ipc.o(i.rt_sem_init) for rt_sem_init
    mem.o(i.rt_system_heap_init) refers to mem.o(.data) for mem_size_aligned
    mem.o(i.rt_system_heap_init) refers to mem.o(.bss) for heap_sem
    object.o(i.rt_object_allocate) refers to object.o(i.rt_object_get_information) for rt_object_get_information
    object.o(i.rt_object_allocate) refers to mem.o(i.rt_malloc) for rt_malloc
    object.o(i.rt_object_allocate) refers to kservice.o(i.rt_memset) for rt_memset
    object.o(i.rt_object_allocate) refers to kservice.o(i.rt_strncpy) for rt_strncpy
    object.o(i.rt_object_allocate) refers to context_rvds.o(.text) for rt_hw_interrupt_disable
    object.o(i.rt_object_allocate) refers to object.o(i.rt_list_insert_after) for rt_list_insert_after
    object.o(i.rt_object_delete) refers to context_rvds.o(.text) for rt_hw_interrupt_disable
    object.o(i.rt_object_delete) refers to object.o(i.rt_list_remove) for rt_list_remove
    object.o(i.rt_object_delete) refers to mem.o(i.rt_free) for rt_free
    object.o(i.rt_object_detach) refers to context_rvds.o(.text) for rt_hw_interrupt_disable
    object.o(i.rt_object_detach) refers to object.o(i.rt_list_remove) for rt_list_remove
    object.o(i.rt_object_find) refers to scheduler.o(i.rt_enter_critical) for rt_enter_critical
    object.o(i.rt_object_find) refers to object.o(i.rt_object_get_information) for rt_object_get_information
    object.o(i.rt_object_find) refers to kservice.o(i.rt_strncmp) for rt_strncmp
    object.o(i.rt_object_find) refers to scheduler.o(i.rt_exit_critical) for rt_exit_critical
    object.o(i.rt_object_get_information) refers to object.o(.data) for rt_object_container
    object.o(i.rt_object_init) refers to object.o(i.rt_object_get_information) for rt_object_get_information
    object.o(i.rt_object_init) refers to scheduler.o(i.rt_enter_critical) for rt_enter_critical
    object.o(i.rt_object_init) refers to scheduler.o(i.rt_exit_critical) for rt_exit_critical
    object.o(i.rt_object_init) refers to kservice.o(i.rt_strncpy) for rt_strncpy
    object.o(i.rt_object_init) refers to context_rvds.o(.text) for rt_hw_interrupt_disable
    object.o(i.rt_object_init) refers to object.o(i.rt_list_insert_after) for rt_list_insert_after
    scheduler.o(i._get_highest_priority_thread) refers to cpuport.o(.emb_text) for __rt_ffs
    scheduler.o(i._get_highest_priority_thread) refers to scheduler.o(.data) for rt_thread_ready_priority_group
    scheduler.o(i._get_highest_priority_thread) refers to scheduler.o(.bss) for rt_thread_priority_table
    scheduler.o(i.rt_critical_level) refers to scheduler.o(.data) for rt_scheduler_lock_nest
    scheduler.o(i.rt_enter_critical) refers to context_rvds.o(.text) for rt_hw_interrupt_disable
    scheduler.o(i.rt_enter_critical) refers to scheduler.o(.data) for rt_scheduler_lock_nest
    scheduler.o(i.rt_exit_critical) refers to context_rvds.o(.text) for rt_hw_interrupt_disable
    scheduler.o(i.rt_exit_critical) refers to scheduler.o(i.rt_schedule) for rt_schedule
    scheduler.o(i.rt_exit_critical) refers to scheduler.o(.data) for rt_scheduler_lock_nest
    scheduler.o(i.rt_schedule) refers to context_rvds.o(.text) for rt_hw_interrupt_disable
    scheduler.o(i.rt_schedule) refers to scheduler.o(i._get_highest_priority_thread) for _get_highest_priority_thread
    scheduler.o(i.rt_schedule) refers to scheduler.o(i.rt_schedule_insert_thread) for rt_schedule_insert_thread
    scheduler.o(i.rt_schedule) refers to scheduler.o(i.rt_schedule_remove_thread) for rt_schedule_remove_thread
    scheduler.o(i.rt_schedule) refers to scheduler.o(.data) for rt_scheduler_lock_nest
    scheduler.o(i.rt_schedule) refers to irq.o(.data) for rt_interrupt_nest
    scheduler.o(i.rt_schedule_insert_thread) refers to context_rvds.o(.text) for rt_hw_interrupt_disable
    scheduler.o(i.rt_schedule_insert_thread) refers to scheduler.o(.data) for rt_current_thread
    scheduler.o(i.rt_schedule_insert_thread) refers to scheduler.o(.bss) for rt_thread_priority_table
    scheduler.o(i.rt_schedule_remove_thread) refers to context_rvds.o(.text) for rt_hw_interrupt_disable
    scheduler.o(i.rt_schedule_remove_thread) refers to scheduler.o(.bss) for rt_thread_priority_table
    scheduler.o(i.rt_schedule_remove_thread) refers to scheduler.o(.data) for rt_thread_ready_priority_group
    scheduler.o(i.rt_system_scheduler_init) refers to scheduler.o(i.rt_list_init) for rt_list_init
    scheduler.o(i.rt_system_scheduler_init) refers to scheduler.o(.data) for rt_scheduler_lock_nest
    scheduler.o(i.rt_system_scheduler_init) refers to scheduler.o(.bss) for rt_thread_priority_table
    scheduler.o(i.rt_system_scheduler_start) refers to scheduler.o(i._get_highest_priority_thread) for _get_highest_priority_thread
    scheduler.o(i.rt_system_scheduler_start) refers to scheduler.o(i.rt_schedule_remove_thread) for rt_schedule_remove_thread
    scheduler.o(i.rt_system_scheduler_start) refers to context_rvds.o(.text) for rt_hw_context_switch_to
    scheduler.o(i.rt_system_scheduler_start) refers to scheduler.o(.data) for rt_current_thread
    thread.o(i._rt_thread_init) refers to kservice.o(i.rt_memset) for rt_memset
    thread.o(i._rt_thread_init) refers to cpuport.o(i.rt_hw_stack_init) for rt_hw_stack_init
    thread.o(i._rt_thread_init) refers to timer.o(i.rt_timer_init) for rt_timer_init
    thread.o(i._rt_thread_init) refers to thread.o(i.rt_thread_exit) for rt_thread_exit
    thread.o(i._rt_thread_init) refers to thread.o(i.rt_thread_timeout) for rt_thread_timeout
    thread.o(i.rt_thread_control) refers to context_rvds.o(.text) for rt_hw_interrupt_disable
    thread.o(i.rt_thread_control) refers to scheduler.o(i.rt_schedule_remove_thread) for rt_schedule_remove_thread
    thread.o(i.rt_thread_control) refers to scheduler.o(i.rt_schedule_insert_thread) for rt_schedule_insert_thread
    thread.o(i.rt_thread_control) refers to thread.o(i.rt_thread_startup) for rt_thread_startup
    thread.o(i.rt_thread_control) refers to thread.o(i.rt_thread_delete) for rt_thread_delete
    thread.o(i.rt_thread_create) refers to object.o(i.rt_object_allocate) for rt_object_allocate
    thread.o(i.rt_thread_create) refers to mem.o(i.rt_malloc) for rt_malloc
    thread.o(i.rt_thread_create) refers to object.o(i.rt_object_delete) for rt_object_delete
    thread.o(i.rt_thread_create) refers to thread.o(i._rt_thread_init) for _rt_thread_init
    thread.o(i.rt_thread_delay) refers to thread.o(i.rt_thread_sleep) for rt_thread_sleep
    thread.o(i.rt_thread_delete) refers to scheduler.o(i.rt_schedule_remove_thread) for rt_schedule_remove_thread
    thread.o(i.rt_thread_delete) refers to timer.o(i.rt_timer_detach) for rt_timer_detach
    thread.o(i.rt_thread_delete) refers to context_rvds.o(.text) for rt_hw_interrupt_disable
    thread.o(i.rt_thread_delete) refers to thread.o(i.rt_list_insert_after) for rt_list_insert_after
    thread.o(i.rt_thread_delete) refers to scheduler.o(.data) for rt_thread_defunct
    thread.o(i.rt_thread_detach) refers to scheduler.o(i.rt_schedule_remove_thread) for rt_schedule_remove_thread
    thread.o(i.rt_thread_detach) refers to timer.o(i.rt_timer_detach) for rt_timer_detach
    thread.o(i.rt_thread_detach) refers to object.o(i.rt_object_is_systemobject) for rt_object_is_systemobject
    thread.o(i.rt_thread_detach) refers to object.o(i.rt_object_detach) for rt_object_detach
    thread.o(i.rt_thread_detach) refers to context_rvds.o(.text) for rt_hw_interrupt_disable
    thread.o(i.rt_thread_detach) refers to thread.o(i.rt_list_insert_after) for rt_list_insert_after
    thread.o(i.rt_thread_detach) refers to scheduler.o(.data) for rt_thread_defunct
    thread.o(i.rt_thread_exit) refers to thread.o(i.rt_thread_self) for rt_thread_self
    thread.o(i.rt_thread_exit) refers to context_rvds.o(.text) for rt_hw_interrupt_disable
    thread.o(i.rt_thread_exit) refers to scheduler.o(i.rt_schedule_remove_thread) for rt_schedule_remove_thread
    thread.o(i.rt_thread_exit) refers to timer.o(i.rt_timer_detach) for rt_timer_detach
    thread.o(i.rt_thread_exit) refers to object.o(i.rt_object_is_systemobject) for rt_object_is_systemobject
    thread.o(i.rt_thread_exit) refers to object.o(i.rt_object_detach) for rt_object_detach
    thread.o(i.rt_thread_exit) refers to thread.o(i.rt_list_insert_after) for rt_list_insert_after
    thread.o(i.rt_thread_exit) refers to scheduler.o(i.rt_schedule) for rt_schedule
    thread.o(i.rt_thread_exit) refers to scheduler.o(.data) for rt_thread_defunct
    thread.o(i.rt_thread_find) refers to thread.o(i.rt_thread_self) for rt_thread_self
    thread.o(i.rt_thread_find) refers to scheduler.o(i.rt_enter_critical) for rt_enter_critical
    thread.o(i.rt_thread_find) refers to object.o(i.rt_object_get_information) for rt_object_get_information
    thread.o(i.rt_thread_find) refers to kservice.o(i.rt_strncmp) for rt_strncmp
    thread.o(i.rt_thread_find) refers to scheduler.o(i.rt_exit_critical) for rt_exit_critical
    thread.o(i.rt_thread_init) refers to object.o(i.rt_object_init) for rt_object_init
    thread.o(i.rt_thread_init) refers to thread.o(i._rt_thread_init) for _rt_thread_init
    thread.o(i.rt_thread_mdelay) refers to clock.o(i.rt_tick_from_millisecond) for rt_tick_from_millisecond
    thread.o(i.rt_thread_mdelay) refers to thread.o(i.rt_thread_sleep) for rt_thread_sleep
    thread.o(i.rt_thread_resume) refers to context_rvds.o(.text) for rt_hw_interrupt_disable
    thread.o(i.rt_thread_resume) refers to thread.o(i.rt_list_remove) for rt_list_remove
    thread.o(i.rt_thread_resume) refers to timer.o(i.rt_timer_stop) for rt_timer_stop
    thread.o(i.rt_thread_resume) refers to scheduler.o(i.rt_schedule_insert_thread) for rt_schedule_insert_thread
    thread.o(i.rt_thread_self) refers to scheduler.o(.data) for rt_current_thread
    thread.o(i.rt_thread_sleep) refers to thread.o(i.rt_thread_self) for rt_thread_self
    thread.o(i.rt_thread_sleep) refers to context_rvds.o(.text) for rt_hw_interrupt_disable
    thread.o(i.rt_thread_sleep) refers to thread.o(i.rt_thread_suspend) for rt_thread_suspend
    thread.o(i.rt_thread_sleep) refers to timer.o(i.rt_timer_control) for rt_timer_control
    thread.o(i.rt_thread_sleep) refers to timer.o(i.rt_timer_start) for rt_timer_start
    thread.o(i.rt_thread_sleep) refers to scheduler.o(i.rt_schedule) for rt_schedule
    thread.o(i.rt_thread_startup) refers to thread.o(i.rt_thread_resume) for rt_thread_resume
    thread.o(i.rt_thread_startup) refers to thread.o(i.rt_thread_self) for rt_thread_self
    thread.o(i.rt_thread_startup) refers to scheduler.o(i.rt_schedule) for rt_schedule
    thread.o(i.rt_thread_suspend) refers to context_rvds.o(.text) for rt_hw_interrupt_disable
    thread.o(i.rt_thread_suspend) refers to scheduler.o(i.rt_schedule_remove_thread) for rt_schedule_remove_thread
    thread.o(i.rt_thread_suspend) refers to timer.o(i.rt_timer_stop) for rt_timer_stop
    thread.o(i.rt_thread_timeout) refers to thread.o(i.rt_list_remove) for rt_list_remove
    thread.o(i.rt_thread_timeout) refers to scheduler.o(i.rt_schedule_insert_thread) for rt_schedule_insert_thread
    thread.o(i.rt_thread_timeout) refers to scheduler.o(i.rt_schedule) for rt_schedule
    thread.o(i.rt_thread_yield) refers to scheduler.o(i.rt_schedule) for rt_schedule
    timer.o(i._rt_timer_init) refers to timer.o(i.rt_list_init) for rt_list_init
    timer.o(i.rt_system_timer_init) refers to timer.o(i.rt_list_init) for rt_list_init
    timer.o(i.rt_system_timer_init) refers to timer.o(.data) for rt_timer_list
    timer.o(i.rt_timer_check) refers to clock.o(i.rt_tick_get) for rt_tick_get
    timer.o(i.rt_timer_check) refers to context_rvds.o(.text) for rt_hw_interrupt_disable
    timer.o(i.rt_timer_check) refers to timer.o(i._rt_timer_remove) for _rt_timer_remove
    timer.o(i.rt_timer_check) refers to timer.o(i.rt_timer_start) for rt_timer_start
    timer.o(i.rt_timer_check) refers to timer.o(i.rt_list_isempty) for rt_list_isempty
    timer.o(i.rt_timer_check) refers to timer.o(.data) for rt_timer_list
    timer.o(i.rt_timer_create) refers to object.o(i.rt_object_allocate) for rt_object_allocate
    timer.o(i.rt_timer_create) refers to timer.o(i._rt_timer_init) for _rt_timer_init
    timer.o(i.rt_timer_delete) refers to context_rvds.o(.text) for rt_hw_interrupt_disable
    timer.o(i.rt_timer_delete) refers to timer.o(i._rt_timer_remove) for _rt_timer_remove
    timer.o(i.rt_timer_delete) refers to object.o(i.rt_object_delete) for rt_object_delete
    timer.o(i.rt_timer_detach) refers to context_rvds.o(.text) for rt_hw_interrupt_disable
    timer.o(i.rt_timer_detach) refers to timer.o(i._rt_timer_remove) for _rt_timer_remove
    timer.o(i.rt_timer_detach) refers to object.o(i.rt_object_detach) for rt_object_detach
    timer.o(i.rt_timer_init) refers to object.o(i.rt_object_init) for rt_object_init
    timer.o(i.rt_timer_init) refers to timer.o(i._rt_timer_init) for _rt_timer_init
    timer.o(i.rt_timer_list_next_timeout) refers to timer.o(i.rt_list_isempty) for rt_list_isempty
    timer.o(i.rt_timer_next_timeout_tick) refers to timer.o(i.rt_timer_list_next_timeout) for rt_timer_list_next_timeout
    timer.o(i.rt_timer_next_timeout_tick) refers to timer.o(.data) for rt_timer_list
    timer.o(i.rt_timer_start) refers to context_rvds.o(.text) for rt_hw_interrupt_disable
    timer.o(i.rt_timer_start) refers to timer.o(i._rt_timer_remove) for _rt_timer_remove
    timer.o(i.rt_timer_start) refers to clock.o(i.rt_tick_get) for rt_tick_get
    timer.o(i.rt_timer_start) refers to timer.o(i.rt_list_insert_after) for rt_list_insert_after
    timer.o(i.rt_timer_start) refers to timer.o(.data) for rt_timer_list
    timer.o(i.rt_timer_stop) refers to context_rvds.o(.text) for rt_hw_interrupt_disable
    timer.o(i.rt_timer_stop) refers to timer.o(i._rt_timer_remove) for _rt_timer_remove
    board.o(i.SystemClock_Config) refers to rt_memclr_w.o(.text) for __aeabi_memclr4
    board.o(i.SystemClock_Config) refers to stm32f1xx_hal_rcc.o(i.HAL_RCC_OscConfig) for HAL_RCC_OscConfig
    board.o(i.SystemClock_Config) refers to drv_common.o(i._Error_Handler) for _Error_Handler
    board.o(i.SystemClock_Config) refers to stm32f1xx_hal_rcc.o(i.HAL_RCC_ClockConfig) for HAL_RCC_ClockConfig
    drv_gpio.o(i.EXTI0_IRQHandler) refers to irq.o(i.rt_interrupt_enter) for rt_interrupt_enter
    drv_gpio.o(i.EXTI0_IRQHandler) refers to stm32f1xx_hal_gpio.o(i.HAL_GPIO_EXTI_IRQHandler) for HAL_GPIO_EXTI_IRQHandler
    drv_gpio.o(i.EXTI0_IRQHandler) refers to irq.o(i.rt_interrupt_leave) for rt_interrupt_leave
    drv_gpio.o(i.EXTI15_10_IRQHandler) refers to irq.o(i.rt_interrupt_enter) for rt_interrupt_enter
    drv_gpio.o(i.EXTI15_10_IRQHandler) refers to stm32f1xx_hal_gpio.o(i.HAL_GPIO_EXTI_IRQHandler) for HAL_GPIO_EXTI_IRQHandler
    drv_gpio.o(i.EXTI15_10_IRQHandler) refers to irq.o(i.rt_interrupt_leave) for rt_interrupt_leave
    drv_gpio.o(i.EXTI1_IRQHandler) refers to irq.o(i.rt_interrupt_enter) for rt_interrupt_enter
    drv_gpio.o(i.EXTI1_IRQHandler) refers to stm32f1xx_hal_gpio.o(i.HAL_GPIO_EXTI_IRQHandler) for HAL_GPIO_EXTI_IRQHandler
    drv_gpio.o(i.EXTI1_IRQHandler) refers to irq.o(i.rt_interrupt_leave) for rt_interrupt_leave
    drv_gpio.o(i.EXTI2_IRQHandler) refers to irq.o(i.rt_interrupt_enter) for rt_interrupt_enter
    drv_gpio.o(i.EXTI2_IRQHandler) refers to stm32f1xx_hal_gpio.o(i.HAL_GPIO_EXTI_IRQHandler) for HAL_GPIO_EXTI_IRQHandler
    drv_gpio.o(i.EXTI2_IRQHandler) refers to irq.o(i.rt_interrupt_leave) for rt_interrupt_leave
    drv_gpio.o(i.EXTI3_IRQHandler) refers to irq.o(i.rt_interrupt_enter) for rt_interrupt_enter
    drv_gpio.o(i.EXTI3_IRQHandler) refers to stm32f1xx_hal_gpio.o(i.HAL_GPIO_EXTI_IRQHandler) for HAL_GPIO_EXTI_IRQHandler
    drv_gpio.o(i.EXTI3_IRQHandler) refers to irq.o(i.rt_interrupt_leave) for rt_interrupt_leave
    drv_gpio.o(i.EXTI4_IRQHandler) refers to irq.o(i.rt_interrupt_enter) for rt_interrupt_enter
    drv_gpio.o(i.EXTI4_IRQHandler) refers to stm32f1xx_hal_gpio.o(i.HAL_GPIO_EXTI_IRQHandler) for HAL_GPIO_EXTI_IRQHandler
    drv_gpio.o(i.EXTI4_IRQHandler) refers to irq.o(i.rt_interrupt_leave) for rt_interrupt_leave
    drv_gpio.o(i.EXTI9_5_IRQHandler) refers to irq.o(i.rt_interrupt_enter) for rt_interrupt_enter
    drv_gpio.o(i.EXTI9_5_IRQHandler) refers to stm32f1xx_hal_gpio.o(i.HAL_GPIO_EXTI_IRQHandler) for HAL_GPIO_EXTI_IRQHandler
    drv_gpio.o(i.EXTI9_5_IRQHandler) refers to irq.o(i.rt_interrupt_leave) for rt_interrupt_leave
    drv_gpio.o(i.HAL_GPIO_EXTI_Callback) refers to drv_gpio.o(i.bit2bitno) for bit2bitno
    drv_gpio.o(i.HAL_GPIO_EXTI_Callback) refers to drv_gpio.o(.data) for pin_irq_hdr_tab
    drv_gpio.o(i.get_pin) refers to drv_gpio.o(.constdata) for pins
    drv_gpio.o(i.rt_hw_pin_init) refers to pin.o(i.rt_device_pin_register) for rt_device_pin_register
    drv_gpio.o(i.rt_hw_pin_init) refers to drv_gpio.o(.constdata) for _stm32_pin_ops
    drv_gpio.o(i.stm32_pin_attach_irq) refers to drv_gpio.o(i.get_pin) for get_pin
    drv_gpio.o(i.stm32_pin_attach_irq) refers to drv_gpio.o(i.bit2bitno) for bit2bitno
    drv_gpio.o(i.stm32_pin_attach_irq) refers to context_rvds.o(.text) for rt_hw_interrupt_disable
    drv_gpio.o(i.stm32_pin_attach_irq) refers to drv_gpio.o(.data) for pin_irq_hdr_tab
    drv_gpio.o(i.stm32_pin_dettach_irq) refers to drv_gpio.o(i.get_pin) for get_pin
    drv_gpio.o(i.stm32_pin_dettach_irq) refers to drv_gpio.o(i.bit2bitno) for bit2bitno
    drv_gpio.o(i.stm32_pin_dettach_irq) refers to context_rvds.o(.text) for rt_hw_interrupt_disable
    drv_gpio.o(i.stm32_pin_dettach_irq) refers to drv_gpio.o(.data) for pin_irq_hdr_tab
    drv_gpio.o(i.stm32_pin_irq_enable) refers to drv_gpio.o(i.get_pin) for get_pin
    drv_gpio.o(i.stm32_pin_irq_enable) refers to drv_gpio.o(i.bit2bitno) for bit2bitno
    drv_gpio.o(i.stm32_pin_irq_enable) refers to context_rvds.o(.text) for rt_hw_interrupt_disable
    drv_gpio.o(i.stm32_pin_irq_enable) refers to stm32f1xx_hal_gpio.o(i.HAL_GPIO_Init) for HAL_GPIO_Init
    drv_gpio.o(i.stm32_pin_irq_enable) refers to stm32f1xx_hal_cortex.o(i.HAL_NVIC_SetPriority) for HAL_NVIC_SetPriority
    drv_gpio.o(i.stm32_pin_irq_enable) refers to stm32f1xx_hal_cortex.o(i.HAL_NVIC_EnableIRQ) for HAL_NVIC_EnableIRQ
    drv_gpio.o(i.stm32_pin_irq_enable) refers to stm32f1xx_hal_gpio.o(i.HAL_GPIO_DeInit) for HAL_GPIO_DeInit
    drv_gpio.o(i.stm32_pin_irq_enable) refers to stm32f1xx_hal_cortex.o(i.HAL_NVIC_DisableIRQ) for HAL_NVIC_DisableIRQ
    drv_gpio.o(i.stm32_pin_irq_enable) refers to drv_gpio.o(.data) for pin_irq_hdr_tab
    drv_gpio.o(i.stm32_pin_irq_enable) refers to drv_gpio.o(.constdata) for pin_irq_map
    drv_gpio.o(i.stm32_pin_mode) refers to drv_gpio.o(i.get_pin) for get_pin
    drv_gpio.o(i.stm32_pin_mode) refers to stm32f1xx_hal_gpio.o(i.HAL_GPIO_Init) for HAL_GPIO_Init
    drv_gpio.o(i.stm32_pin_read) refers to drv_gpio.o(i.get_pin) for get_pin
    drv_gpio.o(i.stm32_pin_read) refers to stm32f1xx_hal_gpio.o(i.HAL_GPIO_ReadPin) for HAL_GPIO_ReadPin
    drv_gpio.o(i.stm32_pin_write) refers to drv_gpio.o(i.get_pin) for get_pin
    drv_gpio.o(i.stm32_pin_write) refers to stm32f1xx_hal_gpio.o(i.HAL_GPIO_WritePin) for HAL_GPIO_WritePin
    drv_gpio.o(.constdata) refers to drv_gpio.o(i.stm32_pin_mode) for stm32_pin_mode
    drv_gpio.o(.constdata) refers to drv_gpio.o(i.stm32_pin_write) for stm32_pin_write
    drv_gpio.o(.constdata) refers to drv_gpio.o(i.stm32_pin_read) for stm32_pin_read
    drv_gpio.o(.constdata) refers to drv_gpio.o(i.stm32_pin_attach_irq) for stm32_pin_attach_irq
    drv_gpio.o(.constdata) refers to drv_gpio.o(i.stm32_pin_dettach_irq) for stm32_pin_dettach_irq
    drv_gpio.o(.constdata) refers to drv_gpio.o(i.stm32_pin_irq_enable) for stm32_pin_irq_enable
    drv_usart.o(i.USART1_IRQHandler) refers to irq.o(i.rt_interrupt_enter) for rt_interrupt_enter
    drv_usart.o(i.USART1_IRQHandler) refers to drv_usart.o(i.uart_isr) for uart_isr
    drv_usart.o(i.USART1_IRQHandler) refers to irq.o(i.rt_interrupt_leave) for rt_interrupt_leave
    drv_usart.o(i.USART1_IRQHandler) refers to drv_usart.o(.bss) for uart_obj
    drv_usart.o(i.rt_hw_usart_init) refers to drv_usart.o(i.stm32_uart_get_dma_config) for stm32_uart_get_dma_config
    drv_usart.o(i.rt_hw_usart_init) refers to serial.o(i.rt_hw_serial_register) for rt_hw_serial_register
    drv_usart.o(i.rt_hw_usart_init) refers to drv_usart.o(.constdata) for .constdata
    drv_usart.o(i.rt_hw_usart_init) refers to drv_usart.o(.data) for uart_config
    drv_usart.o(i.rt_hw_usart_init) refers to drv_usart.o(.bss) for uart_obj
    drv_usart.o(i.stm32_configure) refers to stm32f1xx_hal_uart.o(i.HAL_UART_Init) for HAL_UART_Init
    drv_usart.o(i.stm32_dma_transmit) refers to stm32f1xx_hal_uart.o(i.HAL_UART_Transmit_DMA) for HAL_UART_Transmit_DMA
    drv_usart.o(i.stm32_uart_get_dma_config) refers to drv_usart.o(.bss) for uart_obj
    drv_usart.o(i.uart_isr) refers to serial.o(i.rt_hw_serial_isr) for rt_hw_serial_isr
    drv_usart.o(.constdata) refers to drv_usart.o(i.stm32_configure) for stm32_configure
    drv_usart.o(.constdata) refers to drv_usart.o(i.stm32_control) for stm32_control
    drv_usart.o(.constdata) refers to drv_usart.o(i.stm32_putc) for stm32_putc
    drv_usart.o(.constdata) refers to drv_usart.o(i.stm32_getc) for stm32_getc
    drv_usart.o(.constdata) refers to drv_usart.o(i.stm32_dma_transmit) for stm32_dma_transmit
    drv_usart.o(.data) refers to drv_usart.o(.conststring) for .conststring
    drv_common.o(i.HAL_GetTick) refers to clock.o(i.rt_tick_get) for rt_tick_get
    drv_common.o(i.SysTick_Handler) refers to irq.o(i.rt_interrupt_enter) for rt_interrupt_enter
    drv_common.o(i.SysTick_Handler) refers to stm32f1xx_hal.o(i.HAL_IncTick) for HAL_IncTick
    drv_common.o(i.SysTick_Handler) refers to clock.o(i.rt_tick_increase) for rt_tick_increase
    drv_common.o(i.SysTick_Handler) refers to irq.o(i.rt_interrupt_leave) for rt_interrupt_leave
    drv_common.o(i.rt_hw_board_init) refers to stm32f1xx_hal.o(i.HAL_Init) for HAL_Init
    drv_common.o(i.rt_hw_board_init) refers to board.o(i.SystemClock_Config) for SystemClock_Config
    drv_common.o(i.rt_hw_board_init) refers to drv_common.o(i.rt_hw_systick_init) for rt_hw_systick_init
    drv_common.o(i.rt_hw_board_init) refers to mem.o(i.rt_system_heap_init) for rt_system_heap_init
    drv_common.o(i.rt_hw_board_init) refers to drv_gpio.o(i.rt_hw_pin_init) for rt_hw_pin_init
    drv_common.o(i.rt_hw_board_init) refers to drv_usart.o(i.rt_hw_usart_init) for rt_hw_usart_init
    drv_common.o(i.rt_hw_board_init) refers to components.o(i.rt_components_board_init) for rt_components_board_init
    drv_common.o(i.rt_hw_systick_init) refers to stm32f1xx_hal_rcc.o(i.HAL_RCC_GetHCLKFreq) for HAL_RCC_GetHCLKFreq
    drv_common.o(i.rt_hw_systick_init) refers to stm32f1xx_hal_cortex.o(i.HAL_SYSTICK_Config) for HAL_SYSTICK_Config
    drv_common.o(i.rt_hw_systick_init) refers to stm32f1xx_hal_cortex.o(i.HAL_SYSTICK_CLKSourceConfig) for HAL_SYSTICK_CLKSourceConfig
    drv_common.o(i.rt_hw_systick_init) refers to stm32f1xx_hal_cortex.o(i.HAL_NVIC_SetPriority) for HAL_NVIC_SetPriority
    drv_common.o(i.rt_hw_us_delay) refers to system_stm32f1xx.o(.data) for SystemCoreClock
    startup_stm32f103xe.o(STACK) refers (Special) to heapauxi.o(.text) for __use_two_region_memory
    startup_stm32f103xe.o(HEAP) refers (Special) to heapauxi.o(.text) for __use_two_region_memory
    startup_stm32f103xe.o(RESET) refers (Special) to heapauxi.o(.text) for __use_two_region_memory
    startup_stm32f103xe.o(RESET) refers to startup_stm32f103xe.o(STACK) for __initial_sp
    startup_stm32f103xe.o(RESET) refers to startup_stm32f103xe.o(.text) for Reset_Handler
    startup_stm32f103xe.o(RESET) refers to context_rvds.o(.text) for HardFault_Handler
    startup_stm32f103xe.o(RESET) refers to drv_common.o(i.SysTick_Handler) for SysTick_Handler
    startup_stm32f103xe.o(RESET) refers to drv_gpio.o(i.EXTI0_IRQHandler) for EXTI0_IRQHandler
    startup_stm32f103xe.o(RESET) refers to drv_gpio.o(i.EXTI1_IRQHandler) for EXTI1_IRQHandler
    startup_stm32f103xe.o(RESET) refers to drv_gpio.o(i.EXTI2_IRQHandler) for EXTI2_IRQHandler
    startup_stm32f103xe.o(RESET) refers to drv_gpio.o(i.EXTI3_IRQHandler) for EXTI3_IRQHandler
    startup_stm32f103xe.o(RESET) refers to drv_gpio.o(i.EXTI4_IRQHandler) for EXTI4_IRQHandler
    startup_stm32f103xe.o(RESET) refers to drv_gpio.o(i.EXTI9_5_IRQHandler) for EXTI9_5_IRQHandler
    startup_stm32f103xe.o(RESET) refers to drv_usart.o(i.USART1_IRQHandler) for USART1_IRQHandler
    startup_stm32f103xe.o(RESET) refers to drv_gpio.o(i.EXTI15_10_IRQHandler) for EXTI15_10_IRQHandler
    startup_stm32f103xe.o(.text) refers (Special) to heapauxi.o(.text) for __use_two_region_memory
    startup_stm32f103xe.o(.text) refers to system_stm32f1xx.o(i.SystemInit) for SystemInit
    startup_stm32f103xe.o(.text) refers to __main.o(!!!main) for __main
    startup_stm32f103xe.o(.text) refers to startup_stm32f103xe.o(HEAP) for Heap_Mem
    startup_stm32f103xe.o(.text) refers to startup_stm32f103xe.o(STACK) for Stack_Mem
    system_stm32f1xx.o(i.SystemCoreClockUpdate) refers to system_stm32f1xx.o(.data) for SystemCoreClock
    system_stm32f1xx.o(i.SystemCoreClockUpdate) refers to system_stm32f1xx.o(.constdata) for AHBPrescTable
    stm32f1xx_hal_dma.o(i.HAL_DMA_PollForTransfer) refers to drv_common.o(i.HAL_GetTick) for HAL_GetTick
    stm32f1xx_hal_dma.o(i.HAL_DMA_Start) refers to stm32f1xx_hal_dma.o(i.DMA_SetConfig) for DMA_SetConfig
    stm32f1xx_hal_dma.o(i.HAL_DMA_Start_IT) refers to stm32f1xx_hal_dma.o(i.DMA_SetConfig) for DMA_SetConfig
    stm32f1xx_hal_cortex.o(i.HAL_NVIC_GetPriorityGrouping) refers to stm32f1xx_hal_cortex.o(i.__NVIC_GetPriorityGrouping) for __NVIC_GetPriorityGrouping
    stm32f1xx_hal_cortex.o(i.HAL_NVIC_SetPriority) refers to stm32f1xx_hal_cortex.o(i.__NVIC_GetPriorityGrouping) for __NVIC_GetPriorityGrouping
    stm32f1xx_hal_cortex.o(i.HAL_NVIC_SetPriority) refers to stm32f1xx_hal_cortex.o(i.__NVIC_SetPriority) for __NVIC_SetPriority
    stm32f1xx_hal_cortex.o(i.HAL_SYSTICK_Config) refers to stm32f1xx_hal_cortex.o(i.__NVIC_SetPriority) for __NVIC_SetPriority
    stm32f1xx_hal_cortex.o(i.HAL_SYSTICK_IRQHandler) refers to stm32f1xx_hal_cortex.o(i.HAL_SYSTICK_Callback) for HAL_SYSTICK_Callback
    stm32f1xx_hal_pwr.o(i.HAL_PWR_EnterSTOPMode) refers to stm32f1xx_hal_pwr.o(i.PWR_OverloadWfe) for PWR_OverloadWfe
    stm32f1xx_hal_pwr.o(i.HAL_PWR_PVD_IRQHandler) refers to stm32f1xx_hal_pwr.o(i.HAL_PWR_PVDCallback) for HAL_PWR_PVDCallback
    stm32f1xx_hal_rcc.o(i.HAL_RCC_ClockConfig) refers to drv_common.o(i.HAL_GetTick) for HAL_GetTick
    stm32f1xx_hal_rcc.o(i.HAL_RCC_ClockConfig) refers to stm32f1xx_hal_rcc.o(i.HAL_RCC_GetSysClockFreq) for HAL_RCC_GetSysClockFreq
    stm32f1xx_hal_rcc.o(i.HAL_RCC_ClockConfig) refers to drv_common.o(i.HAL_InitTick) for HAL_InitTick
    stm32f1xx_hal_rcc.o(i.HAL_RCC_ClockConfig) refers to system_stm32f1xx.o(.constdata) for AHBPrescTable
    stm32f1xx_hal_rcc.o(i.HAL_RCC_ClockConfig) refers to system_stm32f1xx.o(.data) for SystemCoreClock
    stm32f1xx_hal_rcc.o(i.HAL_RCC_ClockConfig) refers to stm32f1xx_hal.o(.data) for uwTickPrio
    stm32f1xx_hal_rcc.o(i.HAL_RCC_DeInit) refers to drv_common.o(i.HAL_GetTick) for HAL_GetTick
    stm32f1xx_hal_rcc.o(i.HAL_RCC_DeInit) refers to drv_common.o(i.HAL_InitTick) for HAL_InitTick
    stm32f1xx_hal_rcc.o(i.HAL_RCC_DeInit) refers to system_stm32f1xx.o(.data) for SystemCoreClock
    stm32f1xx_hal_rcc.o(i.HAL_RCC_DeInit) refers to stm32f1xx_hal.o(.data) for uwTickPrio
    stm32f1xx_hal_rcc.o(i.HAL_RCC_GetHCLKFreq) refers to system_stm32f1xx.o(.data) for SystemCoreClock
    stm32f1xx_hal_rcc.o(i.HAL_RCC_GetPCLK1Freq) refers to stm32f1xx_hal_rcc.o(i.HAL_RCC_GetHCLKFreq) for HAL_RCC_GetHCLKFreq
    stm32f1xx_hal_rcc.o(i.HAL_RCC_GetPCLK1Freq) refers to system_stm32f1xx.o(.constdata) for APBPrescTable
    stm32f1xx_hal_rcc.o(i.HAL_RCC_GetPCLK2Freq) refers to stm32f1xx_hal_rcc.o(i.HAL_RCC_GetHCLKFreq) for HAL_RCC_GetHCLKFreq
    stm32f1xx_hal_rcc.o(i.HAL_RCC_GetPCLK2Freq) refers to system_stm32f1xx.o(.constdata) for APBPrescTable
    stm32f1xx_hal_rcc.o(i.HAL_RCC_MCOConfig) refers to stm32f1xx_hal_gpio.o(i.HAL_GPIO_Init) for HAL_GPIO_Init
    stm32f1xx_hal_rcc.o(i.HAL_RCC_NMI_IRQHandler) refers to stm32f1xx_hal_rcc.o(i.HAL_RCC_CSSCallback) for HAL_RCC_CSSCallback
    stm32f1xx_hal_rcc.o(i.HAL_RCC_OscConfig) refers to drv_common.o(i.HAL_GetTick) for HAL_GetTick
    stm32f1xx_hal_rcc.o(i.HAL_RCC_OscConfig) refers to stm32f1xx_hal_rcc.o(i.RCC_Delay) for RCC_Delay
    stm32f1xx_hal_rcc.o(i.RCC_Delay) refers to system_stm32f1xx.o(.data) for SystemCoreClock
    stm32f1xx_hal_rcc_ex.o(i.HAL_RCCEx_GetPeriphCLKFreq) refers to stm32f1xx_hal_rcc.o(i.HAL_RCC_GetSysClockFreq) for HAL_RCC_GetSysClockFreq
    stm32f1xx_hal_rcc_ex.o(i.HAL_RCCEx_GetPeriphCLKFreq) refers to stm32f1xx_hal_rcc.o(i.HAL_RCC_GetPCLK2Freq) for HAL_RCC_GetPCLK2Freq
    stm32f1xx_hal_rcc_ex.o(i.HAL_RCCEx_PeriphCLKConfig) refers to drv_common.o(i.HAL_GetTick) for HAL_GetTick
    stm32f1xx_hal.o(i.HAL_DeInit) refers to stm32f1xx_hal.o(i.HAL_MspDeInit) for HAL_MspDeInit
    stm32f1xx_hal.o(i.HAL_Delay) refers to drv_common.o(i.HAL_GetTick) for HAL_GetTick
    stm32f1xx_hal.o(i.HAL_Delay) refers to stm32f1xx_hal.o(.data) for uwTickFreq
    stm32f1xx_hal.o(i.HAL_GetTick) refers to stm32f1xx_hal.o(.data) for uwTick
    stm32f1xx_hal.o(i.HAL_GetTickFreq) refers to stm32f1xx_hal.o(.data) for uwTickFreq
    stm32f1xx_hal.o(i.HAL_GetTickPrio) refers to stm32f1xx_hal.o(.data) for uwTickPrio
    stm32f1xx_hal.o(i.HAL_IncTick) refers to stm32f1xx_hal.o(.data) for uwTick
    stm32f1xx_hal.o(i.HAL_Init) refers to stm32f1xx_hal_cortex.o(i.HAL_NVIC_SetPriorityGrouping) for HAL_NVIC_SetPriorityGrouping
    stm32f1xx_hal.o(i.HAL_Init) refers to drv_common.o(i.HAL_InitTick) for HAL_InitTick
    stm32f1xx_hal.o(i.HAL_Init) refers to stm32f1xx_hal_msp.o(i.HAL_MspInit) for HAL_MspInit
    stm32f1xx_hal.o(i.HAL_InitTick) refers to stm32f1xx_hal_cortex.o(i.HAL_SYSTICK_Config) for HAL_SYSTICK_Config
    stm32f1xx_hal.o(i.HAL_InitTick) refers to stm32f1xx_hal_cortex.o(i.HAL_NVIC_SetPriority) for HAL_NVIC_SetPriority
    stm32f1xx_hal.o(i.HAL_InitTick) refers to stm32f1xx_hal.o(.data) for uwTickFreq
    stm32f1xx_hal.o(i.HAL_InitTick) refers to system_stm32f1xx.o(.data) for SystemCoreClock
    stm32f1xx_hal.o(i.HAL_SetTickFreq) refers to drv_common.o(i.HAL_InitTick) for HAL_InitTick
    stm32f1xx_hal.o(i.HAL_SetTickFreq) refers to stm32f1xx_hal.o(.data) for uwTickFreq
    stm32f1xx_hal_gpio.o(i.HAL_GPIO_EXTI_IRQHandler) refers to drv_gpio.o(i.HAL_GPIO_EXTI_Callback) for HAL_GPIO_EXTI_Callback
    stm32f1xx_hal_uart.o(i.HAL_HalfDuplex_Init) refers to stm32f1xx_hal_msp.o(i.HAL_UART_MspInit) for HAL_UART_MspInit
    stm32f1xx_hal_uart.o(i.HAL_HalfDuplex_Init) refers to stm32f1xx_hal_uart.o(i.UART_SetConfig) for UART_SetConfig
    stm32f1xx_hal_uart.o(i.HAL_LIN_Init) refers to stm32f1xx_hal_msp.o(i.HAL_UART_MspInit) for HAL_UART_MspInit
    stm32f1xx_hal_uart.o(i.HAL_LIN_Init) refers to stm32f1xx_hal_uart.o(i.UART_SetConfig) for UART_SetConfig
    stm32f1xx_hal_uart.o(i.HAL_MultiProcessor_Init) refers to stm32f1xx_hal_msp.o(i.HAL_UART_MspInit) for HAL_UART_MspInit
    stm32f1xx_hal_uart.o(i.HAL_MultiProcessor_Init) refers to stm32f1xx_hal_uart.o(i.UART_SetConfig) for UART_SetConfig
    stm32f1xx_hal_uart.o(i.HAL_UART_Abort) refers to stm32f1xx_hal_dma.o(i.HAL_DMA_Abort) for HAL_DMA_Abort
    stm32f1xx_hal_uart.o(i.HAL_UART_Abort) refers to stm32f1xx_hal_dma.o(i.HAL_DMA_GetError) for HAL_DMA_GetError
    stm32f1xx_hal_uart.o(i.HAL_UART_AbortReceive) refers to stm32f1xx_hal_dma.o(i.HAL_DMA_Abort) for HAL_DMA_Abort
    stm32f1xx_hal_uart.o(i.HAL_UART_AbortReceive) refers to stm32f1xx_hal_dma.o(i.HAL_DMA_GetError) for HAL_DMA_GetError
    stm32f1xx_hal_uart.o(i.HAL_UART_AbortReceive_IT) refers to stm32f1xx_hal_dma.o(i.HAL_DMA_Abort_IT) for HAL_DMA_Abort_IT
    stm32f1xx_hal_uart.o(i.HAL_UART_AbortReceive_IT) refers to stm32f1xx_hal_uart.o(i.HAL_UART_AbortReceiveCpltCallback) for HAL_UART_AbortReceiveCpltCallback
    stm32f1xx_hal_uart.o(i.HAL_UART_AbortReceive_IT) refers to stm32f1xx_hal_uart.o(i.UART_DMARxOnlyAbortCallback) for UART_DMARxOnlyAbortCallback
    stm32f1xx_hal_uart.o(i.HAL_UART_AbortTransmit) refers to stm32f1xx_hal_dma.o(i.HAL_DMA_Abort) for HAL_DMA_Abort
    stm32f1xx_hal_uart.o(i.HAL_UART_AbortTransmit) refers to stm32f1xx_hal_dma.o(i.HAL_DMA_GetError) for HAL_DMA_GetError
    stm32f1xx_hal_uart.o(i.HAL_UART_AbortTransmit_IT) refers to stm32f1xx_hal_dma.o(i.HAL_DMA_Abort_IT) for HAL_DMA_Abort_IT
    stm32f1xx_hal_uart.o(i.HAL_UART_AbortTransmit_IT) refers to stm32f1xx_hal_uart.o(i.HAL_UART_AbortTransmitCpltCallback) for HAL_UART_AbortTransmitCpltCallback
    stm32f1xx_hal_uart.o(i.HAL_UART_AbortTransmit_IT) refers to stm32f1xx_hal_uart.o(i.UART_DMATxOnlyAbortCallback) for UART_DMATxOnlyAbortCallback
    stm32f1xx_hal_uart.o(i.HAL_UART_Abort_IT) refers to stm32f1xx_hal_dma.o(i.HAL_DMA_Abort_IT) for HAL_DMA_Abort_IT
    stm32f1xx_hal_uart.o(i.HAL_UART_Abort_IT) refers to stm32f1xx_hal_uart.o(i.HAL_UART_AbortCpltCallback) for HAL_UART_AbortCpltCallback
    stm32f1xx_hal_uart.o(i.HAL_UART_Abort_IT) refers to stm32f1xx_hal_uart.o(i.UART_DMATxAbortCallback) for UART_DMATxAbortCallback
    stm32f1xx_hal_uart.o(i.HAL_UART_Abort_IT) refers to stm32f1xx_hal_uart.o(i.UART_DMARxAbortCallback) for UART_DMARxAbortCallback
    stm32f1xx_hal_uart.o(i.HAL_UART_DMAStop) refers to stm32f1xx_hal_dma.o(i.HAL_DMA_Abort) for HAL_DMA_Abort
    stm32f1xx_hal_uart.o(i.HAL_UART_DMAStop) refers to stm32f1xx_hal_uart.o(i.UART_EndTxTransfer) for UART_EndTxTransfer
    stm32f1xx_hal_uart.o(i.HAL_UART_DMAStop) refers to stm32f1xx_hal_uart.o(i.UART_EndRxTransfer) for UART_EndRxTransfer
    stm32f1xx_hal_uart.o(i.HAL_UART_DeInit) refers to stm32f1xx_hal_msp.o(i.HAL_UART_MspDeInit) for HAL_UART_MspDeInit
    stm32f1xx_hal_uart.o(i.HAL_UART_IRQHandler) refers to stm32f1xx_hal_uart.o(i.UART_Receive_IT) for UART_Receive_IT
    stm32f1xx_hal_uart.o(i.HAL_UART_IRQHandler) refers to stm32f1xx_hal_uart.o(i.UART_EndRxTransfer) for UART_EndRxTransfer
    stm32f1xx_hal_uart.o(i.HAL_UART_IRQHandler) refers to stm32f1xx_hal_dma.o(i.HAL_DMA_Abort_IT) for HAL_DMA_Abort_IT
    stm32f1xx_hal_uart.o(i.HAL_UART_IRQHandler) refers to stm32f1xx_hal_uart.o(i.HAL_UART_ErrorCallback) for HAL_UART_ErrorCallback
    stm32f1xx_hal_uart.o(i.HAL_UART_IRQHandler) refers to stm32f1xx_hal_uart.o(i.UART_Transmit_IT) for UART_Transmit_IT
    stm32f1xx_hal_uart.o(i.HAL_UART_IRQHandler) refers to stm32f1xx_hal_uart.o(i.UART_EndTransmit_IT) for UART_EndTransmit_IT
    stm32f1xx_hal_uart.o(i.HAL_UART_IRQHandler) refers to stm32f1xx_hal_uart.o(i.UART_DMAAbortOnError) for UART_DMAAbortOnError
    stm32f1xx_hal_uart.o(i.HAL_UART_Init) refers to stm32f1xx_hal_msp.o(i.HAL_UART_MspInit) for HAL_UART_MspInit
    stm32f1xx_hal_uart.o(i.HAL_UART_Init) refers to stm32f1xx_hal_uart.o(i.UART_SetConfig) for UART_SetConfig
    stm32f1xx_hal_uart.o(i.HAL_UART_Receive) refers to drv_common.o(i.HAL_GetTick) for HAL_GetTick
    stm32f1xx_hal_uart.o(i.HAL_UART_Receive) refers to stm32f1xx_hal_uart.o(i.UART_WaitOnFlagUntilTimeout) for UART_WaitOnFlagUntilTimeout
    stm32f1xx_hal_uart.o(i.HAL_UART_Receive_DMA) refers to stm32f1xx_hal_dma.o(i.HAL_DMA_Start_IT) for HAL_DMA_Start_IT
    stm32f1xx_hal_uart.o(i.HAL_UART_Receive_DMA) refers to stm32f1xx_hal_uart.o(i.UART_DMAReceiveCplt) for UART_DMAReceiveCplt
    stm32f1xx_hal_uart.o(i.HAL_UART_Receive_DMA) refers to stm32f1xx_hal_uart.o(i.UART_DMARxHalfCplt) for UART_DMARxHalfCplt
    stm32f1xx_hal_uart.o(i.HAL_UART_Receive_DMA) refers to stm32f1xx_hal_uart.o(i.UART_DMAError) for UART_DMAError
    stm32f1xx_hal_uart.o(i.HAL_UART_Transmit) refers to drv_common.o(i.HAL_GetTick) for HAL_GetTick
    stm32f1xx_hal_uart.o(i.HAL_UART_Transmit) refers to stm32f1xx_hal_uart.o(i.UART_WaitOnFlagUntilTimeout) for UART_WaitOnFlagUntilTimeout
    stm32f1xx_hal_uart.o(i.HAL_UART_Transmit_DMA) refers to stm32f1xx_hal_dma.o(i.HAL_DMA_Start_IT) for HAL_DMA_Start_IT
    stm32f1xx_hal_uart.o(i.HAL_UART_Transmit_DMA) refers to stm32f1xx_hal_uart.o(i.UART_DMATransmitCplt) for UART_DMATransmitCplt
    stm32f1xx_hal_uart.o(i.HAL_UART_Transmit_DMA) refers to stm32f1xx_hal_uart.o(i.UART_DMATxHalfCplt) for UART_DMATxHalfCplt
    stm32f1xx_hal_uart.o(i.HAL_UART_Transmit_DMA) refers to stm32f1xx_hal_uart.o(i.UART_DMAError) for UART_DMAError
    stm32f1xx_hal_uart.o(i.UART_DMAAbortOnError) refers to stm32f1xx_hal_uart.o(i.HAL_UART_ErrorCallback) for HAL_UART_ErrorCallback
    stm32f1xx_hal_uart.o(i.UART_DMAError) refers to stm32f1xx_hal_uart.o(i.UART_EndTxTransfer) for UART_EndTxTransfer
    stm32f1xx_hal_uart.o(i.UART_DMAError) refers to stm32f1xx_hal_uart.o(i.UART_EndRxTransfer) for UART_EndRxTransfer
    stm32f1xx_hal_uart.o(i.UART_DMAError) refers to stm32f1xx_hal_uart.o(i.HAL_UART_ErrorCallback) for HAL_UART_ErrorCallback
    stm32f1xx_hal_uart.o(i.UART_DMAReceiveCplt) refers to my_uart.o(i.HAL_UART_RxCpltCallback) for HAL_UART_RxCpltCallback
    stm32f1xx_hal_uart.o(i.UART_DMARxAbortCallback) refers to stm32f1xx_hal_uart.o(i.HAL_UART_AbortCpltCallback) for HAL_UART_AbortCpltCallback
    stm32f1xx_hal_uart.o(i.UART_DMARxHalfCplt) refers to stm32f1xx_hal_uart.o(i.HAL_UART_RxHalfCpltCallback) for HAL_UART_RxHalfCpltCallback
    stm32f1xx_hal_uart.o(i.UART_DMARxOnlyAbortCallback) refers to stm32f1xx_hal_uart.o(i.HAL_UART_AbortReceiveCpltCallback) for HAL_UART_AbortReceiveCpltCallback
    stm32f1xx_hal_uart.o(i.UART_DMATransmitCplt) refers to stm32f1xx_hal_uart.o(i.HAL_UART_TxCpltCallback) for HAL_UART_TxCpltCallback
    stm32f1xx_hal_uart.o(i.UART_DMATxAbortCallback) refers to stm32f1xx_hal_uart.o(i.HAL_UART_AbortCpltCallback) for HAL_UART_AbortCpltCallback
    stm32f1xx_hal_uart.o(i.UART_DMATxHalfCplt) refers to stm32f1xx_hal_uart.o(i.HAL_UART_TxHalfCpltCallback) for HAL_UART_TxHalfCpltCallback
    stm32f1xx_hal_uart.o(i.UART_DMATxOnlyAbortCallback) refers to stm32f1xx_hal_uart.o(i.HAL_UART_AbortTransmitCpltCallback) for HAL_UART_AbortTransmitCpltCallback
    stm32f1xx_hal_uart.o(i.UART_EndTransmit_IT) refers to stm32f1xx_hal_uart.o(i.HAL_UART_TxCpltCallback) for HAL_UART_TxCpltCallback
    stm32f1xx_hal_uart.o(i.UART_Receive_IT) refers to my_uart.o(i.HAL_UART_RxCpltCallback) for HAL_UART_RxCpltCallback
    stm32f1xx_hal_uart.o(i.UART_SetConfig) refers to stm32f1xx_hal_rcc.o(i.HAL_RCC_GetPCLK2Freq) for HAL_RCC_GetPCLK2Freq
    stm32f1xx_hal_uart.o(i.UART_SetConfig) refers to stm32f1xx_hal_rcc.o(i.HAL_RCC_GetPCLK1Freq) for HAL_RCC_GetPCLK1Freq
    stm32f1xx_hal_uart.o(i.UART_WaitOnFlagUntilTimeout) refers to drv_common.o(i.HAL_GetTick) for HAL_GetTick
    stm32f1xx_hal_flash.o(i.FLASH_Program_HalfWord) refers to stm32f1xx_hal_flash.o(.bss) for pFlash
    stm32f1xx_hal_flash.o(i.FLASH_SetErrorCode) refers to stm32f1xx_hal_flash.o(.bss) for pFlash
    stm32f1xx_hal_flash.o(i.FLASH_WaitForLastOperation) refers to drv_common.o(i.HAL_GetTick) for HAL_GetTick
    stm32f1xx_hal_flash.o(i.FLASH_WaitForLastOperation) refers to stm32f1xx_hal_flash.o(i.FLASH_SetErrorCode) for FLASH_SetErrorCode
    stm32f1xx_hal_flash.o(i.HAL_FLASH_GetError) refers to stm32f1xx_hal_flash.o(.bss) for pFlash
    stm32f1xx_hal_flash.o(i.HAL_FLASH_IRQHandler) refers to stm32f1xx_hal_flash.o(i.FLASH_SetErrorCode) for FLASH_SetErrorCode
    stm32f1xx_hal_flash.o(i.HAL_FLASH_IRQHandler) refers to stm32f1xx_hal_flash.o(i.HAL_FLASH_OperationErrorCallback) for HAL_FLASH_OperationErrorCallback
    stm32f1xx_hal_flash.o(i.HAL_FLASH_IRQHandler) refers to stm32f1xx_hal_flash.o(i.HAL_FLASH_EndOfOperationCallback) for HAL_FLASH_EndOfOperationCallback
    stm32f1xx_hal_flash.o(i.HAL_FLASH_IRQHandler) refers to stm32f1xx_hal_flash_ex.o(i.FLASH_PageErase) for FLASH_PageErase
    stm32f1xx_hal_flash.o(i.HAL_FLASH_IRQHandler) refers to stm32f1xx_hal_flash.o(i.FLASH_Program_HalfWord) for FLASH_Program_HalfWord
    stm32f1xx_hal_flash.o(i.HAL_FLASH_IRQHandler) refers to stm32f1xx_hal_flash.o(.bss) for pFlash
    stm32f1xx_hal_flash.o(i.HAL_FLASH_OB_Launch) refers to stm32f1xx_hal_cortex.o(i.HAL_NVIC_SystemReset) for HAL_NVIC_SystemReset
    stm32f1xx_hal_flash.o(i.HAL_FLASH_Program) refers to stm32f1xx_hal_flash.o(i.FLASH_WaitForLastOperation) for FLASH_WaitForLastOperation
    stm32f1xx_hal_flash.o(i.HAL_FLASH_Program) refers to llushr.o(.text) for __aeabi_llsr
    stm32f1xx_hal_flash.o(i.HAL_FLASH_Program) refers to stm32f1xx_hal_flash.o(i.FLASH_Program_HalfWord) for FLASH_Program_HalfWord
    stm32f1xx_hal_flash.o(i.HAL_FLASH_Program) refers to stm32f1xx_hal_flash.o(.bss) for pFlash
    stm32f1xx_hal_flash.o(i.HAL_FLASH_Program_IT) refers to stm32f1xx_hal_flash.o(i.FLASH_Program_HalfWord) for FLASH_Program_HalfWord
    stm32f1xx_hal_flash.o(i.HAL_FLASH_Program_IT) refers to stm32f1xx_hal_flash.o(.bss) for pFlash
    stm32f1xx_hal_flash_ex.o(i.FLASH_MassErase) refers to stm32f1xx_hal_flash.o(.bss) for pFlash
    stm32f1xx_hal_flash_ex.o(i.FLASH_OB_DisableWRP) refers to stm32f1xx_hal_flash_ex.o(i.FLASH_OB_GetWRP) for FLASH_OB_GetWRP
    stm32f1xx_hal_flash_ex.o(i.FLASH_OB_DisableWRP) refers to stm32f1xx_hal_flash.o(i.FLASH_WaitForLastOperation) for FLASH_WaitForLastOperation
    stm32f1xx_hal_flash_ex.o(i.FLASH_OB_DisableWRP) refers to stm32f1xx_hal_flash_ex.o(i.HAL_FLASHEx_OBErase) for HAL_FLASHEx_OBErase
    stm32f1xx_hal_flash_ex.o(i.FLASH_OB_DisableWRP) refers to stm32f1xx_hal_flash.o(.bss) for pFlash
    stm32f1xx_hal_flash_ex.o(i.FLASH_OB_EnableWRP) refers to stm32f1xx_hal_flash_ex.o(i.FLASH_OB_GetWRP) for FLASH_OB_GetWRP
    stm32f1xx_hal_flash_ex.o(i.FLASH_OB_EnableWRP) refers to stm32f1xx_hal_flash.o(i.FLASH_WaitForLastOperation) for FLASH_WaitForLastOperation
    stm32f1xx_hal_flash_ex.o(i.FLASH_OB_EnableWRP) refers to stm32f1xx_hal_flash_ex.o(i.HAL_FLASHEx_OBErase) for HAL_FLASHEx_OBErase
    stm32f1xx_hal_flash_ex.o(i.FLASH_OB_EnableWRP) refers to stm32f1xx_hal_flash.o(.bss) for pFlash
    stm32f1xx_hal_flash_ex.o(i.FLASH_OB_ProgramData) refers to stm32f1xx_hal_flash.o(i.FLASH_WaitForLastOperation) for FLASH_WaitForLastOperation
    stm32f1xx_hal_flash_ex.o(i.FLASH_OB_ProgramData) refers to stm32f1xx_hal_flash.o(.bss) for pFlash
    stm32f1xx_hal_flash_ex.o(i.FLASH_OB_RDP_LevelConfig) refers to stm32f1xx_hal_flash.o(i.FLASH_WaitForLastOperation) for FLASH_WaitForLastOperation
    stm32f1xx_hal_flash_ex.o(i.FLASH_OB_RDP_LevelConfig) refers to stm32f1xx_hal_flash.o(.bss) for pFlash
    stm32f1xx_hal_flash_ex.o(i.FLASH_OB_UserConfig) refers to stm32f1xx_hal_flash.o(i.FLASH_WaitForLastOperation) for FLASH_WaitForLastOperation
    stm32f1xx_hal_flash_ex.o(i.FLASH_OB_UserConfig) refers to stm32f1xx_hal_flash.o(.bss) for pFlash
    stm32f1xx_hal_flash_ex.o(i.FLASH_PageErase) refers to stm32f1xx_hal_flash.o(.bss) for pFlash
    stm32f1xx_hal_flash_ex.o(i.HAL_FLASHEx_Erase) refers to stm32f1xx_hal_flash.o(i.FLASH_WaitForLastOperation) for FLASH_WaitForLastOperation
    stm32f1xx_hal_flash_ex.o(i.HAL_FLASHEx_Erase) refers to stm32f1xx_hal_flash_ex.o(i.FLASH_MassErase) for FLASH_MassErase
    stm32f1xx_hal_flash_ex.o(i.HAL_FLASHEx_Erase) refers to stm32f1xx_hal_flash_ex.o(i.FLASH_PageErase) for FLASH_PageErase
    stm32f1xx_hal_flash_ex.o(i.HAL_FLASHEx_Erase) refers to stm32f1xx_hal_flash.o(.bss) for pFlash
    stm32f1xx_hal_flash_ex.o(i.HAL_FLASHEx_Erase_IT) refers to stm32f1xx_hal_flash_ex.o(i.FLASH_MassErase) for FLASH_MassErase
    stm32f1xx_hal_flash_ex.o(i.HAL_FLASHEx_Erase_IT) refers to stm32f1xx_hal_flash_ex.o(i.FLASH_PageErase) for FLASH_PageErase
    stm32f1xx_hal_flash_ex.o(i.HAL_FLASHEx_Erase_IT) refers to stm32f1xx_hal_flash.o(.bss) for pFlash
    stm32f1xx_hal_flash_ex.o(i.HAL_FLASHEx_OBErase) refers to stm32f1xx_hal_flash_ex.o(i.FLASH_OB_GetRDP) for FLASH_OB_GetRDP
    stm32f1xx_hal_flash_ex.o(i.HAL_FLASHEx_OBErase) refers to stm32f1xx_hal_flash.o(i.FLASH_WaitForLastOperation) for FLASH_WaitForLastOperation
    stm32f1xx_hal_flash_ex.o(i.HAL_FLASHEx_OBErase) refers to stm32f1xx_hal_flash_ex.o(i.FLASH_OB_RDP_LevelConfig) for FLASH_OB_RDP_LevelConfig
    stm32f1xx_hal_flash_ex.o(i.HAL_FLASHEx_OBErase) refers to stm32f1xx_hal_flash.o(.bss) for pFlash
    stm32f1xx_hal_flash_ex.o(i.HAL_FLASHEx_OBGetConfig) refers to stm32f1xx_hal_flash_ex.o(i.FLASH_OB_GetWRP) for FLASH_OB_GetWRP
    stm32f1xx_hal_flash_ex.o(i.HAL_FLASHEx_OBGetConfig) refers to stm32f1xx_hal_flash_ex.o(i.FLASH_OB_GetRDP) for FLASH_OB_GetRDP
    stm32f1xx_hal_flash_ex.o(i.HAL_FLASHEx_OBGetConfig) refers to stm32f1xx_hal_flash_ex.o(i.FLASH_OB_GetUser) for FLASH_OB_GetUser
    stm32f1xx_hal_flash_ex.o(i.HAL_FLASHEx_OBProgram) refers to stm32f1xx_hal_flash_ex.o(i.FLASH_OB_EnableWRP) for FLASH_OB_EnableWRP
    stm32f1xx_hal_flash_ex.o(i.HAL_FLASHEx_OBProgram) refers to stm32f1xx_hal_flash_ex.o(i.FLASH_OB_DisableWRP) for FLASH_OB_DisableWRP
    stm32f1xx_hal_flash_ex.o(i.HAL_FLASHEx_OBProgram) refers to stm32f1xx_hal_flash_ex.o(i.FLASH_OB_RDP_LevelConfig) for FLASH_OB_RDP_LevelConfig
    stm32f1xx_hal_flash_ex.o(i.HAL_FLASHEx_OBProgram) refers to stm32f1xx_hal_flash_ex.o(i.FLASH_OB_UserConfig) for FLASH_OB_UserConfig
    stm32f1xx_hal_flash_ex.o(i.HAL_FLASHEx_OBProgram) refers to stm32f1xx_hal_flash_ex.o(i.FLASH_OB_ProgramData) for FLASH_OB_ProgramData
    stm32f1xx_hal_flash_ex.o(i.HAL_FLASHEx_OBProgram) refers to stm32f1xx_hal_flash.o(.bss) for pFlash
    pin.o(i.rt_device_pin_register) refers to device.o(i.rt_device_register) for rt_device_register
    pin.o(i.rt_device_pin_register) refers to pin.o(.bss) for _hw_pin
    pin.o(i.rt_device_pin_register) refers to pin.o(i._pin_read) for _pin_read
    pin.o(i.rt_device_pin_register) refers to pin.o(i._pin_write) for _pin_write
    pin.o(i.rt_device_pin_register) refers to pin.o(i._pin_control) for _pin_control
    pin.o(i.rt_pin_attach_irq) refers to pin.o(.bss) for _hw_pin
    pin.o(i.rt_pin_detach_irq) refers to pin.o(.bss) for _hw_pin
    pin.o(i.rt_pin_irq_enable) refers to pin.o(.bss) for _hw_pin
    pin.o(i.rt_pin_mode) refers to pin.o(.bss) for _hw_pin
    pin.o(i.rt_pin_read) refers to pin.o(.bss) for _hw_pin
    pin.o(i.rt_pin_write) refers to pin.o(.bss) for _hw_pin
    serial.o(i._serial_check_buffer_size) refers to serial.o(.data) for already_output
    serial.o(i._serial_int_rx) refers to context_rvds.o(.text) for rt_hw_interrupt_disable
    serial.o(i.rt_hw_serial_isr) refers to context_rvds.o(.text) for rt_hw_interrupt_disable
    serial.o(i.rt_hw_serial_isr) refers to serial.o(i._serial_check_buffer_size) for _serial_check_buffer_size
    serial.o(i.rt_hw_serial_isr) refers to completion.o(i.rt_completion_done) for rt_completion_done
    serial.o(i.rt_hw_serial_register) refers to device.o(i.rt_device_register) for rt_device_register
    serial.o(i.rt_hw_serial_register) refers to serial.o(i.rt_serial_init) for rt_serial_init
    serial.o(i.rt_hw_serial_register) refers to serial.o(i.rt_serial_open) for rt_serial_open
    serial.o(i.rt_hw_serial_register) refers to serial.o(i.rt_serial_close) for rt_serial_close
    serial.o(i.rt_hw_serial_register) refers to serial.o(i.rt_serial_read) for rt_serial_read
    serial.o(i.rt_hw_serial_register) refers to serial.o(i.rt_serial_write) for rt_serial_write
    serial.o(i.rt_hw_serial_register) refers to serial.o(i.rt_serial_control) for rt_serial_control
    serial.o(i.rt_serial_close) refers to mem.o(i.rt_free) for rt_free
    serial.o(i.rt_serial_open) refers to mem.o(i.rt_malloc) for rt_malloc
    serial.o(i.rt_serial_open) refers to kservice.o(i.rt_memset) for rt_memset
    serial.o(i.rt_serial_open) refers to completion.o(i.rt_completion_init) for rt_completion_init
    serial.o(i.rt_serial_read) refers to serial.o(i._serial_int_rx) for _serial_int_rx
    serial.o(i.rt_serial_write) refers to completion.o(i.rt_completion_wait) for rt_completion_wait
    completion.o(i.rt_completion_done) refers to context_rvds.o(.text) for rt_hw_interrupt_disable
    completion.o(i.rt_completion_done) refers to thread.o(i.rt_thread_resume) for rt_thread_resume
    completion.o(i.rt_completion_done) refers to scheduler.o(i.rt_schedule) for rt_schedule
    completion.o(i.rt_completion_init) refers to context_rvds.o(.text) for rt_hw_interrupt_disable
    completion.o(i.rt_completion_wait) refers to thread.o(i.rt_thread_self) for rt_thread_self
    completion.o(i.rt_completion_wait) refers to context_rvds.o(.text) for rt_hw_interrupt_disable
    completion.o(i.rt_completion_wait) refers to thread.o(i.rt_thread_suspend) for rt_thread_suspend
    completion.o(i.rt_completion_wait) refers to timer.o(i.rt_timer_control) for rt_timer_control
    completion.o(i.rt_completion_wait) refers to timer.o(i.rt_timer_start) for rt_timer_start
    completion.o(i.rt_completion_wait) refers to scheduler.o(i.rt_schedule) for rt_schedule
    dataqueue.o(i.rt_data_queue_init) refers to dataqueue.o(i.rt_list_init) for rt_list_init
    dataqueue.o(i.rt_data_queue_init) refers to mem.o(i.rt_malloc) for rt_malloc
    dataqueue.o(i.rt_data_queue_peak) refers to context_rvds.o(.text) for rt_hw_interrupt_disable
    dataqueue.o(i.rt_data_queue_pop) refers to thread.o(i.rt_thread_self) for rt_thread_self
    dataqueue.o(i.rt_data_queue_pop) refers to context_rvds.o(.text) for rt_hw_interrupt_disable
    dataqueue.o(i.rt_data_queue_pop) refers to thread.o(i.rt_thread_suspend) for rt_thread_suspend
    dataqueue.o(i.rt_data_queue_pop) refers to dataqueue.o(i.rt_list_insert_before) for rt_list_insert_before
    dataqueue.o(i.rt_data_queue_pop) refers to timer.o(i.rt_timer_control) for rt_timer_control
    dataqueue.o(i.rt_data_queue_pop) refers to timer.o(i.rt_timer_start) for rt_timer_start
    dataqueue.o(i.rt_data_queue_pop) refers to scheduler.o(i.rt_schedule) for rt_schedule
    dataqueue.o(i.rt_data_queue_pop) refers to dataqueue.o(i.rt_list_isempty) for rt_list_isempty
    dataqueue.o(i.rt_data_queue_pop) refers to thread.o(i.rt_thread_resume) for rt_thread_resume
    dataqueue.o(i.rt_data_queue_push) refers to thread.o(i.rt_thread_self) for rt_thread_self
    dataqueue.o(i.rt_data_queue_push) refers to context_rvds.o(.text) for rt_hw_interrupt_disable
    dataqueue.o(i.rt_data_queue_push) refers to thread.o(i.rt_thread_suspend) for rt_thread_suspend
    dataqueue.o(i.rt_data_queue_push) refers to dataqueue.o(i.rt_list_insert_before) for rt_list_insert_before
    dataqueue.o(i.rt_data_queue_push) refers to timer.o(i.rt_timer_control) for rt_timer_control
    dataqueue.o(i.rt_data_queue_push) refers to timer.o(i.rt_timer_start) for rt_timer_start
    dataqueue.o(i.rt_data_queue_push) refers to scheduler.o(i.rt_schedule) for rt_schedule
    dataqueue.o(i.rt_data_queue_push) refers to dataqueue.o(i.rt_list_isempty) for rt_list_isempty
    dataqueue.o(i.rt_data_queue_push) refers to thread.o(i.rt_thread_resume) for rt_thread_resume
    dataqueue.o(i.rt_data_queue_reset) refers to scheduler.o(i.rt_enter_critical) for rt_enter_critical
    dataqueue.o(i.rt_data_queue_reset) refers to context_rvds.o(.text) for rt_hw_interrupt_disable
    dataqueue.o(i.rt_data_queue_reset) refers to thread.o(i.rt_thread_resume) for rt_thread_resume
    dataqueue.o(i.rt_data_queue_reset) refers to dataqueue.o(i.rt_list_isempty) for rt_list_isempty
    dataqueue.o(i.rt_data_queue_reset) refers to scheduler.o(i.rt_exit_critical) for rt_exit_critical
    dataqueue.o(i.rt_data_queue_reset) refers to scheduler.o(i.rt_schedule) for rt_schedule
    pipe.o(i.rt_pipe_close) refers to ipc.o(i.rt_mutex_take) for rt_mutex_take
    pipe.o(i.rt_pipe_close) refers to ringbuffer.o(i.rt_ringbuffer_destroy) for rt_ringbuffer_destroy
    pipe.o(i.rt_pipe_close) refers to ipc.o(i.rt_mutex_release) for rt_mutex_release
    pipe.o(i.rt_pipe_create) refers to mem.o(i.rt_malloc) for rt_malloc
    pipe.o(i.rt_pipe_create) refers to kservice.o(i.rt_memset) for rt_memset
    pipe.o(i.rt_pipe_create) refers to ipc.o(i.rt_mutex_init) for rt_mutex_init
    pipe.o(i.rt_pipe_create) refers to pipe.o(i.rt_wqueue_init) for rt_wqueue_init
    pipe.o(i.rt_pipe_create) refers to device.o(i.rt_device_register) for rt_device_register
    pipe.o(i.rt_pipe_create) refers to mem.o(i.rt_free) for rt_free
    pipe.o(i.rt_pipe_create) refers to pipe.o(i.rt_pipe_open) for rt_pipe_open
    pipe.o(i.rt_pipe_create) refers to pipe.o(i.rt_pipe_read) for rt_pipe_read
    pipe.o(i.rt_pipe_create) refers to pipe.o(i.rt_pipe_write) for rt_pipe_write
    pipe.o(i.rt_pipe_create) refers to pipe.o(i.rt_pipe_close) for rt_pipe_close
    pipe.o(i.rt_pipe_create) refers to pipe.o(i.rt_pipe_control) for rt_pipe_control
    pipe.o(i.rt_pipe_delete) refers to device.o(i.rt_device_find) for rt_device_find
    pipe.o(i.rt_pipe_delete) refers to ipc.o(i.rt_mutex_detach) for rt_mutex_detach
    pipe.o(i.rt_pipe_delete) refers to device.o(i.rt_device_unregister) for rt_device_unregister
    pipe.o(i.rt_pipe_delete) refers to ringbuffer.o(i.rt_ringbuffer_destroy) for rt_ringbuffer_destroy
    pipe.o(i.rt_pipe_delete) refers to mem.o(i.rt_free) for rt_free
    pipe.o(i.rt_pipe_open) refers to ipc.o(i.rt_mutex_take) for rt_mutex_take
    pipe.o(i.rt_pipe_open) refers to ringbuffer.o(i.rt_ringbuffer_create) for rt_ringbuffer_create
    pipe.o(i.rt_pipe_open) refers to ipc.o(i.rt_mutex_release) for rt_mutex_release
    pipe.o(i.rt_pipe_read) refers to kservice.o(i.rt_set_errno) for rt_set_errno
    pipe.o(i.rt_pipe_read) refers to ipc.o(i.rt_mutex_take) for rt_mutex_take
    pipe.o(i.rt_pipe_read) refers to ringbuffer.o(i.rt_ringbuffer_get) for rt_ringbuffer_get
    pipe.o(i.rt_pipe_read) refers to ipc.o(i.rt_mutex_release) for rt_mutex_release
    pipe.o(i.rt_pipe_write) refers to kservice.o(i.rt_set_errno) for rt_set_errno
    pipe.o(i.rt_pipe_write) refers to ipc.o(i.rt_mutex_take) for rt_mutex_take
    pipe.o(i.rt_pipe_write) refers to ringbuffer.o(i.rt_ringbuffer_put) for rt_ringbuffer_put
    pipe.o(i.rt_pipe_write) refers to ipc.o(i.rt_mutex_release) for rt_mutex_release
    ringblk_buf.o(i.rt_rbb_blk_alloc) refers to context_rvds.o(.text) for rt_hw_interrupt_disable
    ringblk_buf.o(i.rt_rbb_blk_alloc) refers to ringblk_buf.o(i.find_empty_blk_in_set) for find_empty_blk_in_set
    ringblk_buf.o(i.rt_rbb_blk_alloc) refers to ringblk_buf.o(i.rt_slist_len) for rt_slist_len
    ringblk_buf.o(i.rt_rbb_blk_alloc) refers to ringblk_buf.o(i.rt_slist_append) for rt_slist_append
    ringblk_buf.o(i.rt_rbb_blk_free) refers to context_rvds.o(.text) for rt_hw_interrupt_disable
    ringblk_buf.o(i.rt_rbb_blk_free) refers to ringblk_buf.o(i.rt_slist_remove) for rt_slist_remove
    ringblk_buf.o(i.rt_rbb_blk_get) refers to ringblk_buf.o(i.rt_slist_isempty) for rt_slist_isempty
    ringblk_buf.o(i.rt_rbb_blk_get) refers to context_rvds.o(.text) for rt_hw_interrupt_disable
    ringblk_buf.o(i.rt_rbb_blk_queue_free) refers to ringblk_buf.o(i.rt_rbb_blk_free) for rt_rbb_blk_free
    ringblk_buf.o(i.rt_rbb_blk_queue_get) refers to ringblk_buf.o(i.rt_slist_isempty) for rt_slist_isempty
    ringblk_buf.o(i.rt_rbb_blk_queue_get) refers to context_rvds.o(.text) for rt_hw_interrupt_disable
    ringblk_buf.o(i.rt_rbb_blk_queue_get) refers to ringblk_buf.o(i.rt_slist_remove) for rt_slist_remove
    ringblk_buf.o(i.rt_rbb_create) refers to mem.o(i.rt_malloc) for rt_malloc
    ringblk_buf.o(i.rt_rbb_create) refers to mem.o(i.rt_free) for rt_free
    ringblk_buf.o(i.rt_rbb_create) refers to ringblk_buf.o(i.rt_rbb_init) for rt_rbb_init
    ringblk_buf.o(i.rt_rbb_destroy) refers to mem.o(i.rt_free) for rt_free
    ringblk_buf.o(i.rt_rbb_next_blk_queue_len) refers to ringblk_buf.o(i.rt_slist_isempty) for rt_slist_isempty
    ringblk_buf.o(i.rt_rbb_next_blk_queue_len) refers to context_rvds.o(.text) for rt_hw_interrupt_disable
    ringbuffer.o(i.rt_ringbuffer_create) refers to mem.o(i.rt_malloc) for rt_malloc
    ringbuffer.o(i.rt_ringbuffer_create) refers to mem.o(i.rt_free) for rt_free
    ringbuffer.o(i.rt_ringbuffer_create) refers to ringbuffer.o(i.rt_ringbuffer_init) for rt_ringbuffer_init
    ringbuffer.o(i.rt_ringbuffer_data_len) refers to ringbuffer.o(i.rt_ringbuffer_status) for rt_ringbuffer_status
    ringbuffer.o(i.rt_ringbuffer_destroy) refers to mem.o(i.rt_free) for rt_free
    ringbuffer.o(i.rt_ringbuffer_get) refers to ringbuffer.o(i.rt_ringbuffer_data_len) for rt_ringbuffer_data_len
    ringbuffer.o(i.rt_ringbuffer_get) refers to rt_memcpy_v6.o(.text) for __aeabi_memcpy
    ringbuffer.o(i.rt_ringbuffer_getchar) refers to ringbuffer.o(i.rt_ringbuffer_data_len) for rt_ringbuffer_data_len
    ringbuffer.o(i.rt_ringbuffer_put) refers to ringbuffer.o(i.rt_ringbuffer_data_len) for rt_ringbuffer_data_len
    ringbuffer.o(i.rt_ringbuffer_put) refers to rt_memcpy_v6.o(.text) for __aeabi_memcpy
    ringbuffer.o(i.rt_ringbuffer_put_force) refers to ringbuffer.o(i.rt_ringbuffer_data_len) for rt_ringbuffer_data_len
    ringbuffer.o(i.rt_ringbuffer_put_force) refers to rt_memcpy_v6.o(.text) for __aeabi_memcpy
    ringbuffer.o(i.rt_ringbuffer_putchar) refers to ringbuffer.o(i.rt_ringbuffer_data_len) for rt_ringbuffer_data_len
    ringbuffer.o(i.rt_ringbuffer_putchar_force) refers to ringbuffer.o(i.rt_ringbuffer_status) for rt_ringbuffer_status
    waitqueue.o(i.rt_wqueue_add) refers to context_rvds.o(.text) for rt_hw_interrupt_disable
    waitqueue.o(i.rt_wqueue_remove) refers to context_rvds.o(.text) for rt_hw_interrupt_disable
    waitqueue.o(i.rt_wqueue_wait) refers to thread.o(i.rt_thread_self) for rt_thread_self
    waitqueue.o(i.rt_wqueue_wait) refers to clock.o(i.rt_tick_from_millisecond) for rt_tick_from_millisecond
    waitqueue.o(i.rt_wqueue_wait) refers to context_rvds.o(.text) for rt_hw_interrupt_disable
    waitqueue.o(i.rt_wqueue_wait) refers to waitqueue.o(i.rt_wqueue_add) for rt_wqueue_add
    waitqueue.o(i.rt_wqueue_wait) refers to thread.o(i.rt_thread_suspend) for rt_thread_suspend
    waitqueue.o(i.rt_wqueue_wait) refers to timer.o(i.rt_timer_control) for rt_timer_control
    waitqueue.o(i.rt_wqueue_wait) refers to timer.o(i.rt_timer_start) for rt_timer_start
    waitqueue.o(i.rt_wqueue_wait) refers to scheduler.o(i.rt_schedule) for rt_schedule
    waitqueue.o(i.rt_wqueue_wait) refers to waitqueue.o(i.rt_wqueue_remove) for rt_wqueue_remove
    waitqueue.o(i.rt_wqueue_wait) refers to waitqueue.o(i.__wqueue_default_wake) for __wqueue_default_wake
    waitqueue.o(i.rt_wqueue_wakeup) refers to context_rvds.o(.text) for rt_hw_interrupt_disable
    waitqueue.o(i.rt_wqueue_wakeup) refers to thread.o(i.rt_thread_resume) for rt_thread_resume
    waitqueue.o(i.rt_wqueue_wakeup) refers to waitqueue.o(i.rt_wqueue_remove) for rt_wqueue_remove
    waitqueue.o(i.rt_wqueue_wakeup) refers to scheduler.o(i.rt_schedule) for rt_schedule
    workqueue.o(i._delayed_work_timeout_handler) refers to context_rvds.o(.text) for rt_hw_interrupt_disable
    workqueue.o(i._delayed_work_timeout_handler) refers to timer.o(i.rt_timer_stop) for rt_timer_stop
    workqueue.o(i._delayed_work_timeout_handler) refers to timer.o(i.rt_timer_detach) for rt_timer_detach
    workqueue.o(i._delayed_work_timeout_handler) refers to workqueue.o(i._workqueue_submit_work) for _workqueue_submit_work
    workqueue.o(i._workqueue_cancel_delayed_work) refers to workqueue.o(i._workqueue_cancel_work) for _workqueue_cancel_work
    workqueue.o(i._workqueue_cancel_delayed_work) refers to context_rvds.o(.text) for rt_hw_interrupt_disable
    workqueue.o(i._workqueue_cancel_delayed_work) refers to timer.o(i.rt_timer_stop) for rt_timer_stop
    workqueue.o(i._workqueue_cancel_delayed_work) refers to timer.o(i.rt_timer_detach) for rt_timer_detach
    workqueue.o(i._workqueue_cancel_work) refers to context_rvds.o(.text) for rt_hw_interrupt_disable
    workqueue.o(i._workqueue_cancel_work) refers to workqueue.o(i.rt_list_remove) for rt_list_remove
    workqueue.o(i._workqueue_submit_delayed_work) refers to workqueue.o(i._workqueue_cancel_delayed_work) for _workqueue_cancel_delayed_work
    workqueue.o(i._workqueue_submit_delayed_work) refers to context_rvds.o(.text) for rt_hw_interrupt_disable
    workqueue.o(i._workqueue_submit_delayed_work) refers to workqueue.o(i._workqueue_submit_work) for _workqueue_submit_work
    workqueue.o(i._workqueue_submit_delayed_work) refers to timer.o(i.rt_timer_init) for rt_timer_init
    workqueue.o(i._workqueue_submit_delayed_work) refers to timer.o(i.rt_timer_start) for rt_timer_start
    workqueue.o(i._workqueue_submit_delayed_work) refers to workqueue.o(i._delayed_work_timeout_handler) for _delayed_work_timeout_handler
    workqueue.o(i._workqueue_submit_work) refers to context_rvds.o(.text) for rt_hw_interrupt_disable
    workqueue.o(i._workqueue_submit_work) refers to workqueue.o(i.rt_list_remove) for rt_list_remove
    workqueue.o(i._workqueue_submit_work) refers to workqueue.o(i.rt_list_insert_after) for rt_list_insert_after
    workqueue.o(i._workqueue_submit_work) refers to thread.o(i.rt_thread_resume) for rt_thread_resume
    workqueue.o(i._workqueue_submit_work) refers to scheduler.o(i.rt_schedule) for rt_schedule
    workqueue.o(i._workqueue_thread_entry) refers to thread.o(i.rt_thread_self) for rt_thread_self
    workqueue.o(i._workqueue_thread_entry) refers to thread.o(i.rt_thread_suspend) for rt_thread_suspend
    workqueue.o(i._workqueue_thread_entry) refers to scheduler.o(i.rt_schedule) for rt_schedule
    workqueue.o(i._workqueue_thread_entry) refers to context_rvds.o(.text) for rt_hw_interrupt_disable
    workqueue.o(i._workqueue_thread_entry) refers to workqueue.o(i.rt_list_remove) for rt_list_remove
    workqueue.o(i._workqueue_thread_entry) refers to scheduler.o(i.rt_enter_critical) for rt_enter_critical
    workqueue.o(i._workqueue_thread_entry) refers to ipc.o(i.rt_sem_trytake) for rt_sem_trytake
    workqueue.o(i._workqueue_thread_entry) refers to ipc.o(i.rt_sem_release) for rt_sem_release
    workqueue.o(i._workqueue_thread_entry) refers to scheduler.o(i.rt_exit_critical) for rt_exit_critical
    workqueue.o(i.rt_delayed_work_init) refers to workqueue.o(i.rt_list_init) for rt_list_init
    workqueue.o(i.rt_workqueue_cancel_all_work) refers to scheduler.o(i.rt_enter_critical) for rt_enter_critical
    workqueue.o(i.rt_workqueue_cancel_all_work) refers to workqueue.o(i.rt_list_remove) for rt_list_remove
    workqueue.o(i.rt_workqueue_cancel_all_work) refers to scheduler.o(i.rt_exit_critical) for rt_exit_critical
    workqueue.o(i.rt_workqueue_cancel_work) refers to workqueue.o(i._workqueue_cancel_delayed_work) for _workqueue_cancel_delayed_work
    workqueue.o(i.rt_workqueue_cancel_work) refers to workqueue.o(i._workqueue_cancel_work) for _workqueue_cancel_work
    workqueue.o(i.rt_workqueue_cancel_work_sync) refers to context_rvds.o(.text) for rt_hw_interrupt_disable
    workqueue.o(i.rt_workqueue_cancel_work_sync) refers to ipc.o(i.rt_sem_take) for rt_sem_take
    workqueue.o(i.rt_workqueue_cancel_work_sync) refers to workqueue.o(i.rt_list_remove) for rt_list_remove
    workqueue.o(i.rt_workqueue_create) refers to mem.o(i.rt_malloc) for rt_malloc
    workqueue.o(i.rt_workqueue_create) refers to workqueue.o(i.rt_list_init) for rt_list_init
    workqueue.o(i.rt_workqueue_create) refers to ipc.o(i.rt_sem_init) for rt_sem_init
    workqueue.o(i.rt_workqueue_create) refers to thread.o(i.rt_thread_create) for rt_thread_create
    workqueue.o(i.rt_workqueue_create) refers to mem.o(i.rt_free) for rt_free
    workqueue.o(i.rt_workqueue_create) refers to thread.o(i.rt_thread_startup) for rt_thread_startup
    workqueue.o(i.rt_workqueue_create) refers to workqueue.o(i._workqueue_thread_entry) for _workqueue_thread_entry
    workqueue.o(i.rt_workqueue_critical_work) refers to context_rvds.o(.text) for rt_hw_interrupt_disable
    workqueue.o(i.rt_workqueue_critical_work) refers to workqueue.o(i.rt_list_remove) for rt_list_remove
    workqueue.o(i.rt_workqueue_critical_work) refers to workqueue.o(i.rt_list_insert_after) for rt_list_insert_after
    workqueue.o(i.rt_workqueue_critical_work) refers to thread.o(i.rt_thread_resume) for rt_thread_resume
    workqueue.o(i.rt_workqueue_critical_work) refers to scheduler.o(i.rt_schedule) for rt_schedule
    workqueue.o(i.rt_workqueue_destroy) refers to thread.o(i.rt_thread_delete) for rt_thread_delete
    workqueue.o(i.rt_workqueue_destroy) refers to mem.o(i.rt_free) for rt_free
    workqueue.o(i.rt_workqueue_dowork) refers to workqueue.o(i._workqueue_submit_work) for _workqueue_submit_work
    workqueue.o(i.rt_workqueue_submit_work) refers to workqueue.o(i._workqueue_submit_delayed_work) for _workqueue_submit_delayed_work
    workqueue.o(i.rt_workqueue_submit_work) refers to workqueue.o(i._workqueue_submit_work) for _workqueue_submit_work
    rt_memcpy_v6.o(.text) refers to rt_memcpy_w.o(.text) for __aeabi_memcpy4
    __main.o(!!!main) refers to __rtentry.o(.ARM.Collect$$rtentry$$00000000) for __rt_entry
    __rtentry.o(.ARM.Collect$$rtentry$$00000000) refers (Special) to __rtentry2.o(.ARM.Collect$$rtentry$$0000000A) for __rt_entry_li
    __rtentry.o(.ARM.Collect$$rtentry$$00000000) refers (Special) to __rtentry2.o(.ARM.Collect$$rtentry$$0000000D) for __rt_entry_main
    __rtentry.o(.ARM.Collect$$rtentry$$00000000) refers (Special) to __rtentry2.o(.ARM.Collect$$rtentry$$0000000C) for __rt_entry_postli_1
    __rtentry.o(.ARM.Collect$$rtentry$$00000000) refers (Special) to __rtentry2.o(.ARM.Collect$$rtentry$$00000009) for __rt_entry_postsh_1
    __rtentry.o(.ARM.Collect$$rtentry$$00000000) refers (Special) to __rtentry2.o(.ARM.Collect$$rtentry$$00000002) for __rt_entry_presh_1
    __rtentry.o(.ARM.Collect$$rtentry$$00000000) refers (Special) to __rtentry4.o(.ARM.Collect$$rtentry$$00000004) for __rt_entry_sh
    __rtentry2.o(.ARM.Collect$$rtentry$$00000008) refers to boardinit2.o(.text) for _platform_post_stackheap_init
    __rtentry2.o(.ARM.Collect$$rtentry$$0000000A) refers to libinit.o(.ARM.Collect$$libinit$$00000000) for __rt_lib_init
    __rtentry2.o(.ARM.Collect$$rtentry$$0000000B) refers to boardinit3.o(.text) for _platform_post_lib_init
    __rtentry2.o(.ARM.Collect$$rtentry$$0000000D) refers to components.o(i.$Sub$$main) for main
    __rtentry2.o(.ARM.Collect$$rtentry$$0000000D) refers to exit.o(.text) for exit
    __rtentry2.o(.ARM.exidx) refers to __rtentry2.o(.ARM.Collect$$rtentry$$00000001) for .ARM.Collect$$rtentry$$00000001
    __rtentry2.o(.ARM.exidx) refers to __rtentry2.o(.ARM.Collect$$rtentry$$00000008) for .ARM.Collect$$rtentry$$00000008
    __rtentry2.o(.ARM.exidx) refers to __rtentry2.o(.ARM.Collect$$rtentry$$0000000A) for .ARM.Collect$$rtentry$$0000000A
    __rtentry2.o(.ARM.exidx) refers to __rtentry2.o(.ARM.Collect$$rtentry$$0000000B) for .ARM.Collect$$rtentry$$0000000B
    __rtentry2.o(.ARM.exidx) refers to __rtentry2.o(.ARM.Collect$$rtentry$$0000000D) for .ARM.Collect$$rtentry$$0000000D
    __rtentry4.o(.ARM.Collect$$rtentry$$00000004) refers to sys_stackheap_outer.o(.text) for __user_setup_stackheap
    __rtentry4.o(.ARM.exidx) refers to __rtentry4.o(.ARM.Collect$$rtentry$$00000004) for .ARM.Collect$$rtentry$$00000004
    sys_stackheap_outer.o(.text) refers to libspace.o(.text) for __user_perproc_libspace
    sys_stackheap_outer.o(.text) refers to startup_stm32f103xe.o(.text) for __user_initial_stackheap
    exit.o(.text) refers to rtexit.o(.ARM.Collect$$rtexit$$00000000) for __rt_exit
    libinit.o(.ARM.Collect$$libinit$$00000000) refers (Special) to libinit2.o(.ARM.Collect$$libinit$$0000002E) for __rt_lib_init_alloca_1
    libinit.o(.ARM.Collect$$libinit$$00000000) refers (Special) to libinit2.o(.ARM.Collect$$libinit$$0000002C) for __rt_lib_init_argv_1
    libinit.o(.ARM.Collect$$libinit$$00000000) refers (Special) to libinit2.o(.ARM.Collect$$libinit$$0000001B) for __rt_lib_init_atexit_1
    libinit.o(.ARM.Collect$$libinit$$00000000) refers (Special) to libinit2.o(.ARM.Collect$$libinit$$00000021) for __rt_lib_init_clock_1
    libinit.o(.ARM.Collect$$libinit$$00000000) refers (Special) to libinit2.o(.ARM.Collect$$libinit$$00000032) for __rt_lib_init_cpp_1
    libinit.o(.ARM.Collect$$libinit$$00000000) refers (Special) to libinit2.o(.ARM.Collect$$libinit$$00000030) for __rt_lib_init_exceptions_1
    libinit.o(.ARM.Collect$$libinit$$00000000) refers (Special) to libinit2.o(.ARM.Collect$$libinit$$00000002) for __rt_lib_init_fp_1
    libinit.o(.ARM.Collect$$libinit$$00000000) refers (Special) to libinit2.o(.ARM.Collect$$libinit$$0000001F) for __rt_lib_init_fp_trap_1
    libinit.o(.ARM.Collect$$libinit$$00000000) refers (Special) to libinit2.o(.ARM.Collect$$libinit$$00000023) for __rt_lib_init_getenv_1
    libinit.o(.ARM.Collect$$libinit$$00000000) refers (Special) to libinit2.o(.ARM.Collect$$libinit$$0000000A) for __rt_lib_init_heap_1
    libinit.o(.ARM.Collect$$libinit$$00000000) refers (Special) to libinit2.o(.ARM.Collect$$libinit$$00000011) for __rt_lib_init_lc_collate_1
    libinit.o(.ARM.Collect$$libinit$$00000000) refers (Special) to libinit2.o(.ARM.Collect$$libinit$$00000013) for __rt_lib_init_lc_ctype_1
    libinit.o(.ARM.Collect$$libinit$$00000000) refers (Special) to libinit2.o(.ARM.Collect$$libinit$$00000015) for __rt_lib_init_lc_monetary_1
    libinit.o(.ARM.Collect$$libinit$$00000000) refers (Special) to libinit2.o(.ARM.Collect$$libinit$$00000017) for __rt_lib_init_lc_numeric_1
    libinit.o(.ARM.Collect$$libinit$$00000000) refers (Special) to libinit2.o(.ARM.Collect$$libinit$$00000019) for __rt_lib_init_lc_time_1
    libinit.o(.ARM.Collect$$libinit$$00000000) refers (Special) to libinit2.o(.ARM.Collect$$libinit$$00000004) for __rt_lib_init_preinit_1
    libinit.o(.ARM.Collect$$libinit$$00000000) refers (Special) to libinit2.o(.ARM.Collect$$libinit$$0000000E) for __rt_lib_init_rand_1
    libinit.o(.ARM.Collect$$libinit$$00000000) refers (Special) to libinit2.o(.ARM.Collect$$libinit$$00000033) for __rt_lib_init_return
    libinit.o(.ARM.Collect$$libinit$$00000000) refers (Special) to libinit2.o(.ARM.Collect$$libinit$$0000001D) for __rt_lib_init_signal_1
    libinit.o(.ARM.Collect$$libinit$$00000000) refers (Special) to libinit2.o(.ARM.Collect$$libinit$$00000025) for __rt_lib_init_stdio_1
    libinit.o(.ARM.Collect$$libinit$$00000000) refers (Special) to libinit2.o(.ARM.Collect$$libinit$$0000000C) for __rt_lib_init_user_alloc_1
    libspace.o(.text) refers to libspace.o(.bss) for __libspace_start
    rtexit.o(.ARM.Collect$$rtexit$$00000000) refers (Special) to rtexit2.o(.ARM.Collect$$rtexit$$00000004) for __rt_exit_exit
    rtexit.o(.ARM.Collect$$rtexit$$00000000) refers (Special) to rtexit2.o(.ARM.Collect$$rtexit$$00000003) for __rt_exit_ls
    rtexit.o(.ARM.Collect$$rtexit$$00000000) refers (Special) to rtexit2.o(.ARM.Collect$$rtexit$$00000002) for __rt_exit_prels_1
    rtexit.o(.ARM.exidx) refers (Special) to rtexit2.o(.ARM.Collect$$rtexit$$00000004) for __rt_exit_exit
    rtexit.o(.ARM.exidx) refers (Special) to rtexit2.o(.ARM.Collect$$rtexit$$00000003) for __rt_exit_ls
    rtexit.o(.ARM.exidx) refers (Special) to rtexit2.o(.ARM.Collect$$rtexit$$00000002) for __rt_exit_prels_1
    rtexit.o(.ARM.exidx) refers to rtexit.o(.ARM.Collect$$rtexit$$00000000) for .ARM.Collect$$rtexit$$00000000
    libinit2.o(.ARM.Collect$$libinit$$00000010) refers to libinit2.o(.ARM.Collect$$libinit$$0000000F) for .ARM.Collect$$libinit$$0000000F
    libinit2.o(.ARM.Collect$$libinit$$00000012) refers to libinit2.o(.ARM.Collect$$libinit$$0000000F) for .ARM.Collect$$libinit$$0000000F
    libinit2.o(.ARM.Collect$$libinit$$00000014) refers to libinit2.o(.ARM.Collect$$libinit$$0000000F) for .ARM.Collect$$libinit$$0000000F
    libinit2.o(.ARM.Collect$$libinit$$00000016) refers to libinit2.o(.ARM.Collect$$libinit$$0000000F) for .ARM.Collect$$libinit$$0000000F
    libinit2.o(.ARM.Collect$$libinit$$00000018) refers to libinit2.o(.ARM.Collect$$libinit$$0000000F) for .ARM.Collect$$libinit$$0000000F
    libinit2.o(.ARM.Collect$$libinit$$00000026) refers to argv_veneer.o(.emb_text) for __ARM_argv_veneer
    libinit2.o(.ARM.Collect$$libinit$$00000027) refers to argv_veneer.o(.emb_text) for __ARM_argv_veneer
    rtexit2.o(.ARM.Collect$$rtexit$$00000003) refers to libshutdown.o(.ARM.Collect$$libshutdown$$00000000) for __rt_lib_shutdown
    rtexit2.o(.ARM.Collect$$rtexit$$00000004) refers to sys_exit.o(.text) for _sys_exit
    rtexit2.o(.ARM.exidx) refers to rtexit2.o(.ARM.Collect$$rtexit$$00000001) for .ARM.Collect$$rtexit$$00000001
    rtexit2.o(.ARM.exidx) refers to rtexit2.o(.ARM.Collect$$rtexit$$00000003) for .ARM.Collect$$rtexit$$00000003
    rtexit2.o(.ARM.exidx) refers to rtexit2.o(.ARM.Collect$$rtexit$$00000004) for .ARM.Collect$$rtexit$$00000004
    argv_veneer.o(.emb_text) refers to no_argv.o(.text) for __ARM_get_argv
    sys_exit.o(.text) refers (Special) to use_no_semi.o(.text) for __I$use$semihosting
    sys_exit.o(.text) refers (Special) to indicate_semi.o(.text) for __semihosting_library_function
    _get_argv_nomalloc.o(.text) refers (Special) to hrguard.o(.text) for __heap_region$guard
    _get_argv_nomalloc.o(.text) refers to defsig_rtmem_outer.o(.text) for __rt_SIGRTMEM
    _get_argv_nomalloc.o(.text) refers to sys_command.o(.text) for _sys_command_string
    libshutdown.o(.ARM.Collect$$libshutdown$$00000000) refers (Special) to libshutdown2.o(.ARM.Collect$$libshutdown$$00000002) for __rt_lib_shutdown_cpp_1
    libshutdown.o(.ARM.Collect$$libshutdown$$00000000) refers (Special) to libshutdown2.o(.ARM.Collect$$libshutdown$$00000007) for __rt_lib_shutdown_fp_trap_1
    libshutdown.o(.ARM.Collect$$libshutdown$$00000000) refers (Special) to libshutdown2.o(.ARM.Collect$$libshutdown$$0000000F) for __rt_lib_shutdown_heap_1
    libshutdown.o(.ARM.Collect$$libshutdown$$00000000) refers (Special) to libshutdown2.o(.ARM.Collect$$libshutdown$$00000010) for __rt_lib_shutdown_return
    libshutdown.o(.ARM.Collect$$libshutdown$$00000000) refers (Special) to libshutdown2.o(.ARM.Collect$$libshutdown$$0000000A) for __rt_lib_shutdown_signal_1
    libshutdown.o(.ARM.Collect$$libshutdown$$00000000) refers (Special) to libshutdown2.o(.ARM.Collect$$libshutdown$$00000004) for __rt_lib_shutdown_stdio_1
    libshutdown.o(.ARM.Collect$$libshutdown$$00000000) refers (Special) to libshutdown2.o(.ARM.Collect$$libshutdown$$0000000C) for __rt_lib_shutdown_user_alloc_1
    sys_command.o(.text) refers (Special) to use_no_semi.o(.text) for __I$use$semihosting
    sys_command.o(.text) refers (Special) to indicate_semi.o(.text) for __semihosting_library_function
    defsig_rtmem_outer.o(.text) refers to defsig_rtmem_inner.o(.text) for __rt_SIGRTMEM_inner
    defsig_rtmem_outer.o(.text) refers to defsig_exit.o(.text) for __sig_exit
    defsig_rtmem_formal.o(.text) refers to rt_raise.o(.text) for __rt_raise
    rt_raise.o(.text) refers to __raise.o(.text) for __raise
    rt_raise.o(.text) refers to sys_exit.o(.text) for _sys_exit
    defsig_exit.o(.text) refers to sys_exit.o(.text) for _sys_exit
    defsig_rtmem_inner.o(.text) refers to defsig_general.o(.text) for __default_signal_display
    __raise.o(.text) refers to defsig.o(CL$$defsig) for __default_signal_handler
    defsig_general.o(.text) refers to sys_wrch.o(.text) for _ttywrch
    sys_wrch.o(.text) refers (Special) to use_no_semi.o(.text) for __I$use$semihosting
    sys_wrch.o(.text) refers (Special) to indicate_semi.o(.text) for __semihosting_library_function
    defsig.o(CL$$defsig) refers to defsig_rtmem_inner.o(.text) for __rt_SIGRTMEM_inner
    defsig_abrt_inner.o(.text) refers to defsig_general.o(.text) for __default_signal_display
    defsig_fpe_inner.o(.text) refers to defsig_general.o(.text) for __default_signal_display
    defsig_rtred_inner.o(.text) refers to defsig_general.o(.text) for __default_signal_display
    defsig_stak_inner.o(.text) refers to defsig_general.o(.text) for __default_signal_display
    defsig_pvfn_inner.o(.text) refers to defsig_general.o(.text) for __default_signal_display
    defsig_cppl_inner.o(.text) refers to defsig_general.o(.text) for __default_signal_display
    defsig_segv_inner.o(.text) refers to defsig_general.o(.text) for __default_signal_display
    defsig_other.o(.text) refers to defsig_general.o(.text) for __default_signal_display


==============================================================================

Removing Unused input sections from the image.

    Removing main.o(.rev16_text), (4 bytes).
    Removing main.o(.revsh_text), (4 bytes).
    Removing main.o(.rrx_text), (6 bytes).
    Removing my_flash.o(.rev16_text), (4 bytes).
    Removing my_flash.o(.revsh_text), (4 bytes).
    Removing my_flash.o(.rrx_text), (6 bytes).
    Removing my_flash.o(i.my_get_device_id), (28 bytes).
    Removing my_flash.o(i.my_read_erase_write_to_flash), (88 bytes).
    Removing my_iap.o(.rev16_text), (4 bytes).
    Removing my_iap.o(.revsh_text), (4 bytes).
    Removing my_iap.o(.rrx_text), (6 bytes).
    Removing my_iap.o(i.start_up_init), (64 bytes).
    Removing my_uart.o(.rev16_text), (4 bytes).
    Removing my_uart.o(.revsh_text), (4 bytes).
    Removing my_uart.o(.rrx_text), (6 bytes).
    Removing my_uart.o(i.HAL_UART_RxCpltCallback), (52 bytes).
    Removing my_uart.o(.bss), (2112 bytes).
    Removing my_uart.o(.data), (5 bytes).
    Removing stm32f1xx_hal_msp.o(.rev16_text), (4 bytes).
    Removing stm32f1xx_hal_msp.o(.revsh_text), (4 bytes).
    Removing stm32f1xx_hal_msp.o(.rrx_text), (6 bytes).
    Removing stm32f1xx_hal_msp.o(i.HAL_SD_MspDeInit), (60 bytes).
    Removing stm32f1xx_hal_msp.o(i.HAL_SD_MspInit), (168 bytes).
    Removing stm32f1xx_hal_msp.o(i.HAL_TIM_MspPostInit), (84 bytes).
    Removing stm32f1xx_hal_msp.o(i.HAL_TIM_PWM_MspDeInit), (28 bytes).
    Removing stm32f1xx_hal_msp.o(i.HAL_TIM_PWM_MspInit), (44 bytes).
    Removing stm32f1xx_hal_msp.o(i.HAL_UART_MspDeInit), (48 bytes).
    Removing backtrace.o(i.rt_hw_backtrace), (2 bytes).
    Removing div0.o(i.__div0), (4 bytes).
    Removing showmem.o(i.rt_hw_show_memory), (38 bytes).
    Removing cpuport.o(i.rt_hw_cpu_reset), (16 bytes).
    Removing cpuport.o(i.rt_hw_cpu_shutdown), (2 bytes).
    Removing cpuport.o(i.rt_hw_exception_install), (12 bytes).
    Removing time.o(i.__isleap), (52 bytes).
    Removing time.o(i.asctime), (20 bytes).
    Removing time.o(i.asctime_r), (156 bytes).
    Removing time.o(i.clock), (8 bytes).
    Removing time.o(i.ctime), (18 bytes).
    Removing time.o(i.gettimeofday), (48 bytes).
    Removing time.o(i.gmtime), (20 bytes).
    Removing time.o(i.gmtime_r), (204 bytes).
    Removing time.o(i.localtime), (20 bytes).
    Removing time.o(i.localtime_r), (16 bytes).
    Removing time.o(i.mktime), (372 bytes).
    Removing time.o(i.num2str), (26 bytes).
    Removing time.o(i.time), (10 bytes).
    Removing time.o(.bss), (113 bytes).
    Removing time.o(.constdata), (104 bytes).
    Removing clock.o(i.rt_system_tick_init), (2 bytes).
    Removing clock.o(i.rt_tick_set), (28 bytes).
    Removing components.o(.rev16_text), (4 bytes).
    Removing components.o(.revsh_text), (4 bytes).
    Removing components.o(.rrx_text), (6 bytes).
    Removing device.o(i.rt_device_close), (54 bytes).
    Removing device.o(i.rt_device_control), (30 bytes).
    Removing device.o(i.rt_device_create), (46 bytes).
    Removing device.o(i.rt_device_destroy), (18 bytes).
    Removing device.o(i.rt_device_init), (40 bytes).
    Removing device.o(i.rt_device_init_all), (4 bytes).
    Removing device.o(i.rt_device_set_tx_complete), (8 bytes).
    Removing device.o(i.rt_device_unregister), (14 bytes).
    Removing device.o(i.rt_device_write), (62 bytes).
    Removing idle.o(i.rt_thread_idle_gethandler), (16 bytes).
    Removing ipc.o(i.rt_event_control), (54 bytes).
    Removing ipc.o(i.rt_event_create), (38 bytes).
    Removing ipc.o(i.rt_event_delete), (22 bytes).
    Removing ipc.o(i.rt_event_detach), (22 bytes).
    Removing ipc.o(i.rt_event_init), (32 bytes).
    Removing ipc.o(i.rt_event_recv), (218 bytes).
    Removing ipc.o(i.rt_event_send), (180 bytes).
    Removing ipc.o(i.rt_ipc_list_resume_all), (50 bytes).
    Removing ipc.o(i.rt_mutex_control), (8 bytes).
    Removing ipc.o(i.rt_mutex_create), (50 bytes).
    Removing ipc.o(i.rt_mutex_delete), (22 bytes).
    Removing ipc.o(i.rt_mutex_detach), (22 bytes).
    Removing ipc.o(i.rt_mutex_init), (44 bytes).
    Removing ipc.o(i.rt_mutex_release), (150 bytes).
    Removing ipc.o(i.rt_mutex_take), (192 bytes).
    Removing ipc.o(i.rt_sem_control), (54 bytes).
    Removing ipc.o(i.rt_sem_create), (42 bytes).
    Removing ipc.o(i.rt_sem_delete), (22 bytes).
    Removing ipc.o(i.rt_sem_detach), (22 bytes).
    Removing ipc.o(i.rt_sem_trytake), (14 bytes).
    Removing kservice.o(i._rt_errno), (36 bytes).
    Removing kservice.o(i.rt_free_align), (16 bytes).
    Removing kservice.o(i.rt_get_errno), (36 bytes).
    Removing kservice.o(i.rt_malloc_align), (70 bytes).
    Removing kservice.o(i.rt_memcmp), (38 bytes).
    Removing kservice.o(i.rt_memcpy), (124 bytes).
    Removing kservice.o(i.rt_memmove), (66 bytes).
    Removing kservice.o(i.rt_snprintf), (38 bytes).
    Removing kservice.o(i.rt_strcasecmp), (48 bytes).
    Removing kservice.o(i.rt_strcmp), (28 bytes).
    Removing kservice.o(i.rt_strdup), (40 bytes).
    Removing kservice.o(i.rt_strnlen), (24 bytes).
    Removing kservice.o(i.rt_strstr), (58 bytes).
    Removing mem.o(i.rt_calloc), (34 bytes).
    Removing mem.o(i.rt_memory_info), (40 bytes).
    Removing mem.o(i.rt_realloc), (296 bytes).
    Removing object.o(i.rt_object_find), (86 bytes).
    Removing object.o(i.rt_object_get_type), (10 bytes).
    Removing object.o(i.rt_system_object_init), (2 bytes).
    Removing scheduler.o(i.rt_critical_level), (12 bytes).
    Removing thread.o(i.rt_thread_control), (118 bytes).
    Removing thread.o(i.rt_thread_delay), (12 bytes).
    Removing thread.o(i.rt_thread_delete), (64 bytes).
    Removing thread.o(i.rt_thread_detach), (88 bytes).
    Removing thread.o(i.rt_thread_find), (82 bytes).
    Removing timer.o(i.rt_timer_create), (54 bytes).
    Removing timer.o(i.rt_timer_delete), (32 bytes).
    Removing timer.o(i.rt_timer_list_next_timeout), (28 bytes).
    Removing timer.o(i.rt_timer_next_timeout_tick), (16 bytes).
    Removing board.o(.rev16_text), (4 bytes).
    Removing board.o(.revsh_text), (4 bytes).
    Removing board.o(.rrx_text), (6 bytes).
    Removing drv_gpio.o(.rev16_text), (4 bytes).
    Removing drv_gpio.o(.revsh_text), (4 bytes).
    Removing drv_gpio.o(.rrx_text), (6 bytes).
    Removing drv_usart.o(.rev16_text), (4 bytes).
    Removing drv_usart.o(.revsh_text), (4 bytes).
    Removing drv_usart.o(.rrx_text), (6 bytes).
    Removing drv_common.o(.rev16_text), (4 bytes).
    Removing drv_common.o(.revsh_text), (4 bytes).
    Removing drv_common.o(.rrx_text), (6 bytes).
    Removing drv_common.o(i.HAL_Delay), (2 bytes).
    Removing drv_common.o(i.HAL_ResumeTick), (2 bytes).
    Removing drv_common.o(i.HAL_SuspendTick), (2 bytes).
    Removing drv_common.o(i.rt_hw_us_delay), (64 bytes).
    Removing system_stm32f1xx.o(.rev16_text), (4 bytes).
    Removing system_stm32f1xx.o(.revsh_text), (4 bytes).
    Removing system_stm32f1xx.o(.rrx_text), (6 bytes).
    Removing system_stm32f1xx.o(i.SystemCoreClockUpdate), (164 bytes).
    Removing stm32f1xx_hal_dma.o(.rev16_text), (4 bytes).
    Removing stm32f1xx_hal_dma.o(.revsh_text), (4 bytes).
    Removing stm32f1xx_hal_dma.o(.rrx_text), (6 bytes).
    Removing stm32f1xx_hal_dma.o(i.HAL_DMA_Abort), (86 bytes).
    Removing stm32f1xx_hal_dma.o(i.HAL_DMA_Abort_IT), (424 bytes).
    Removing stm32f1xx_hal_dma.o(i.HAL_DMA_DeInit), (140 bytes).
    Removing stm32f1xx_hal_dma.o(i.HAL_DMA_GetError), (6 bytes).
    Removing stm32f1xx_hal_dma.o(i.HAL_DMA_GetState), (8 bytes).
    Removing stm32f1xx_hal_dma.o(i.HAL_DMA_IRQHandler), (920 bytes).
    Removing stm32f1xx_hal_dma.o(i.HAL_DMA_Init), (140 bytes).
    Removing stm32f1xx_hal_dma.o(i.HAL_DMA_PollForTransfer), (1620 bytes).
    Removing stm32f1xx_hal_dma.o(i.HAL_DMA_RegisterCallback), (90 bytes).
    Removing stm32f1xx_hal_dma.o(i.HAL_DMA_Start), (114 bytes).
    Removing stm32f1xx_hal_dma.o(i.HAL_DMA_UnRegisterCallback), (106 bytes).
    Removing stm32f1xx_hal_cortex.o(.rev16_text), (4 bytes).
    Removing stm32f1xx_hal_cortex.o(.revsh_text), (4 bytes).
    Removing stm32f1xx_hal_cortex.o(.rrx_text), (6 bytes).
    Removing stm32f1xx_hal_cortex.o(i.HAL_NVIC_ClearPendingIRQ), (36 bytes).
    Removing stm32f1xx_hal_cortex.o(i.HAL_NVIC_GetActive), (48 bytes).
    Removing stm32f1xx_hal_cortex.o(i.HAL_NVIC_GetPendingIRQ), (48 bytes).
    Removing stm32f1xx_hal_cortex.o(i.HAL_NVIC_GetPriority), (148 bytes).
    Removing stm32f1xx_hal_cortex.o(i.HAL_NVIC_GetPriorityGrouping), (8 bytes).
    Removing stm32f1xx_hal_cortex.o(i.HAL_NVIC_SetPendingIRQ), (36 bytes).
    Removing stm32f1xx_hal_cortex.o(i.HAL_NVIC_SystemReset), (68 bytes).
    Removing stm32f1xx_hal_cortex.o(i.HAL_SYSTICK_Callback), (2 bytes).
    Removing stm32f1xx_hal_cortex.o(i.HAL_SYSTICK_IRQHandler), (8 bytes).
    Removing stm32f1xx_hal_crc.o(.rev16_text), (4 bytes).
    Removing stm32f1xx_hal_crc.o(.revsh_text), (4 bytes).
    Removing stm32f1xx_hal_crc.o(.rrx_text), (6 bytes).
    Removing stm32f1xx_hal_pwr.o(.rev16_text), (4 bytes).
    Removing stm32f1xx_hal_pwr.o(.revsh_text), (4 bytes).
    Removing stm32f1xx_hal_pwr.o(.rrx_text), (6 bytes).
    Removing stm32f1xx_hal_pwr.o(i.HAL_PWR_ConfigPVD), (180 bytes).
    Removing stm32f1xx_hal_pwr.o(i.HAL_PWR_DeInit), (28 bytes).
    Removing stm32f1xx_hal_pwr.o(i.HAL_PWR_DisableBkUpAccess), (12 bytes).
    Removing stm32f1xx_hal_pwr.o(i.HAL_PWR_DisablePVD), (12 bytes).
    Removing stm32f1xx_hal_pwr.o(i.HAL_PWR_DisableSEVOnPend), (20 bytes).
    Removing stm32f1xx_hal_pwr.o(i.HAL_PWR_DisableSleepOnExit), (20 bytes).
    Removing stm32f1xx_hal_pwr.o(i.HAL_PWR_DisableWakeUpPin), (28 bytes).
    Removing stm32f1xx_hal_pwr.o(i.HAL_PWR_EnableBkUpAccess), (12 bytes).
    Removing stm32f1xx_hal_pwr.o(i.HAL_PWR_EnablePVD), (12 bytes).
    Removing stm32f1xx_hal_pwr.o(i.HAL_PWR_EnableSEVOnPend), (20 bytes).
    Removing stm32f1xx_hal_pwr.o(i.HAL_PWR_EnableSleepOnExit), (20 bytes).
    Removing stm32f1xx_hal_pwr.o(i.HAL_PWR_EnableWakeUpPin), (28 bytes).
    Removing stm32f1xx_hal_pwr.o(i.HAL_PWR_EnterSLEEPMode), (32 bytes).
    Removing stm32f1xx_hal_pwr.o(i.HAL_PWR_EnterSTANDBYMode), (40 bytes).
    Removing stm32f1xx_hal_pwr.o(i.HAL_PWR_EnterSTOPMode), (84 bytes).
    Removing stm32f1xx_hal_pwr.o(i.HAL_PWR_PVDCallback), (2 bytes).
    Removing stm32f1xx_hal_pwr.o(i.HAL_PWR_PVD_IRQHandler), (32 bytes).
    Removing stm32f1xx_hal_pwr.o(i.PWR_OverloadWfe), (6 bytes).
    Removing stm32f1xx_hal_rcc.o(.rev16_text), (4 bytes).
    Removing stm32f1xx_hal_rcc.o(.revsh_text), (4 bytes).
    Removing stm32f1xx_hal_rcc.o(.rrx_text), (6 bytes).
    Removing stm32f1xx_hal_rcc.o(i.HAL_RCC_CSSCallback), (2 bytes).
    Removing stm32f1xx_hal_rcc.o(i.HAL_RCC_DeInit), (272 bytes).
    Removing stm32f1xx_hal_rcc.o(i.HAL_RCC_DisableCSS), (12 bytes).
    Removing stm32f1xx_hal_rcc.o(i.HAL_RCC_EnableCSS), (12 bytes).
    Removing stm32f1xx_hal_rcc.o(i.HAL_RCC_GetClockConfig), (68 bytes).
    Removing stm32f1xx_hal_rcc.o(i.HAL_RCC_GetOscConfig), (200 bytes).
    Removing stm32f1xx_hal_rcc.o(i.HAL_RCC_MCOConfig), (100 bytes).
    Removing stm32f1xx_hal_rcc.o(i.HAL_RCC_NMI_IRQHandler), (32 bytes).
    Removing stm32f1xx_hal_rcc_ex.o(.rev16_text), (4 bytes).
    Removing stm32f1xx_hal_rcc_ex.o(.revsh_text), (4 bytes).
    Removing stm32f1xx_hal_rcc_ex.o(.rrx_text), (6 bytes).
    Removing stm32f1xx_hal_rcc_ex.o(i.HAL_RCCEx_GetPeriphCLKConfig), (84 bytes).
    Removing stm32f1xx_hal_rcc_ex.o(i.HAL_RCCEx_GetPeriphCLKFreq), (308 bytes).
    Removing stm32f1xx_hal_rcc_ex.o(i.HAL_RCCEx_PeriphCLKConfig), (304 bytes).
    Removing stm32f1xx_hal.o(.rev16_text), (4 bytes).
    Removing stm32f1xx_hal.o(.revsh_text), (4 bytes).
    Removing stm32f1xx_hal.o(.rrx_text), (6 bytes).
    Removing stm32f1xx_hal.o(i.HAL_DBGMCU_DisableDBGSleepMode), (20 bytes).
    Removing stm32f1xx_hal.o(i.HAL_DBGMCU_DisableDBGStandbyMode), (20 bytes).
    Removing stm32f1xx_hal.o(i.HAL_DBGMCU_DisableDBGStopMode), (20 bytes).
    Removing stm32f1xx_hal.o(i.HAL_DBGMCU_EnableDBGSleepMode), (20 bytes).
    Removing stm32f1xx_hal.o(i.HAL_DBGMCU_EnableDBGStandbyMode), (20 bytes).
    Removing stm32f1xx_hal.o(i.HAL_DBGMCU_EnableDBGStopMode), (20 bytes).
    Removing stm32f1xx_hal.o(i.HAL_DeInit), (36 bytes).
    Removing stm32f1xx_hal.o(i.HAL_Delay), (40 bytes).
    Removing stm32f1xx_hal.o(i.HAL_GetDEVID), (16 bytes).
    Removing stm32f1xx_hal.o(i.HAL_GetHalVersion), (8 bytes).
    Removing stm32f1xx_hal.o(i.HAL_GetREVID), (12 bytes).
    Removing stm32f1xx_hal.o(i.HAL_GetTick), (12 bytes).
    Removing stm32f1xx_hal.o(i.HAL_GetTickFreq), (12 bytes).
    Removing stm32f1xx_hal.o(i.HAL_GetTickPrio), (12 bytes).
    Removing stm32f1xx_hal.o(i.HAL_GetUIDw0), (12 bytes).
    Removing stm32f1xx_hal.o(i.HAL_GetUIDw1), (12 bytes).
    Removing stm32f1xx_hal.o(i.HAL_GetUIDw2), (12 bytes).
    Removing stm32f1xx_hal.o(i.HAL_InitTick), (76 bytes).
    Removing stm32f1xx_hal.o(i.HAL_MspDeInit), (2 bytes).
    Removing stm32f1xx_hal.o(i.HAL_MspInit), (2 bytes).
    Removing stm32f1xx_hal.o(i.HAL_ResumeTick), (18 bytes).
    Removing stm32f1xx_hal.o(i.HAL_SetTickFreq), (44 bytes).
    Removing stm32f1xx_hal.o(i.HAL_SuspendTick), (18 bytes).
    Removing stm32f1xx_hal_cec.o(.rev16_text), (4 bytes).
    Removing stm32f1xx_hal_cec.o(.revsh_text), (4 bytes).
    Removing stm32f1xx_hal_cec.o(.rrx_text), (6 bytes).
    Removing stm32f1xx_hal_sram.o(.rev16_text), (4 bytes).
    Removing stm32f1xx_hal_sram.o(.revsh_text), (4 bytes).
    Removing stm32f1xx_hal_sram.o(.rrx_text), (6 bytes).
    Removing stm32f1xx_hal_gpio.o(.rev16_text), (4 bytes).
    Removing stm32f1xx_hal_gpio.o(.revsh_text), (4 bytes).
    Removing stm32f1xx_hal_gpio.o(.rrx_text), (6 bytes).
    Removing stm32f1xx_hal_gpio.o(i.HAL_GPIO_EXTI_Callback), (2 bytes).
    Removing stm32f1xx_hal_gpio.o(i.HAL_GPIO_LockPin), (46 bytes).
    Removing stm32f1xx_hal_gpio.o(i.HAL_GPIO_TogglePin), (14 bytes).
    Removing stm32f1xx_hal_gpio_ex.o(.rev16_text), (4 bytes).
    Removing stm32f1xx_hal_gpio_ex.o(.revsh_text), (4 bytes).
    Removing stm32f1xx_hal_gpio_ex.o(.rrx_text), (6 bytes).
    Removing stm32f1xx_hal_gpio_ex.o(i.HAL_GPIOEx_ConfigEventout), (24 bytes).
    Removing stm32f1xx_hal_gpio_ex.o(i.HAL_GPIOEx_DisableEventout), (20 bytes).
    Removing stm32f1xx_hal_gpio_ex.o(i.HAL_GPIOEx_EnableEventout), (20 bytes).
    Removing stm32f1xx_hal_uart.o(.rev16_text), (4 bytes).
    Removing stm32f1xx_hal_uart.o(.revsh_text), (4 bytes).
    Removing stm32f1xx_hal_uart.o(.rrx_text), (6 bytes).
    Removing stm32f1xx_hal_uart.o(i.HAL_HalfDuplex_EnableReceiver), (68 bytes).
    Removing stm32f1xx_hal_uart.o(i.HAL_HalfDuplex_EnableTransmitter), (68 bytes).
    Removing stm32f1xx_hal_uart.o(i.HAL_HalfDuplex_Init), (118 bytes).
    Removing stm32f1xx_hal_uart.o(i.HAL_LIN_Init), (142 bytes).
    Removing stm32f1xx_hal_uart.o(i.HAL_LIN_SendBreak), (62 bytes).
    Removing stm32f1xx_hal_uart.o(i.HAL_MultiProcessor_EnterMuteMode), (62 bytes).
    Removing stm32f1xx_hal_uart.o(i.HAL_MultiProcessor_ExitMuteMode), (62 bytes).
    Removing stm32f1xx_hal_uart.o(i.HAL_MultiProcessor_Init), (154 bytes).
    Removing stm32f1xx_hal_uart.o(i.HAL_UART_Abort), (166 bytes).
    Removing stm32f1xx_hal_uart.o(i.HAL_UART_AbortCpltCallback), (2 bytes).
    Removing stm32f1xx_hal_uart.o(i.HAL_UART_AbortReceive), (100 bytes).
    Removing stm32f1xx_hal_uart.o(i.HAL_UART_AbortReceiveCpltCallback), (2 bytes).
    Removing stm32f1xx_hal_uart.o(i.HAL_UART_AbortReceive_IT), (120 bytes).
    Removing stm32f1xx_hal_uart.o(i.HAL_UART_AbortTransmit), (88 bytes).
    Removing stm32f1xx_hal_uart.o(i.HAL_UART_AbortTransmitCpltCallback), (2 bytes).
    Removing stm32f1xx_hal_uart.o(i.HAL_UART_AbortTransmit_IT), (108 bytes).
    Removing stm32f1xx_hal_uart.o(i.HAL_UART_Abort_IT), (216 bytes).
    Removing stm32f1xx_hal_uart.o(i.HAL_UART_DMAPause), (124 bytes).
    Removing stm32f1xx_hal_uart.o(i.HAL_UART_DMAResume), (126 bytes).
    Removing stm32f1xx_hal_uart.o(i.HAL_UART_DMAStop), (102 bytes).
    Removing stm32f1xx_hal_uart.o(i.HAL_UART_DeInit), (58 bytes).
    Removing stm32f1xx_hal_uart.o(i.HAL_UART_GetError), (6 bytes).
    Removing stm32f1xx_hal_uart.o(i.HAL_UART_GetState), (20 bytes).
    Removing stm32f1xx_hal_uart.o(i.HAL_UART_IRQHandler), (332 bytes).
    Removing stm32f1xx_hal_uart.o(i.HAL_UART_MspDeInit), (2 bytes).
    Removing stm32f1xx_hal_uart.o(i.HAL_UART_MspInit), (2 bytes).
    Removing stm32f1xx_hal_uart.o(i.HAL_UART_Receive), (222 bytes).
    Removing stm32f1xx_hal_uart.o(i.HAL_UART_Receive_DMA), (196 bytes).
    Removing stm32f1xx_hal_uart.o(i.HAL_UART_Receive_IT), (112 bytes).
    Removing stm32f1xx_hal_uart.o(i.HAL_UART_RxCpltCallback), (2 bytes).
    Removing stm32f1xx_hal_uart.o(i.HAL_UART_RxHalfCpltCallback), (2 bytes).
    Removing stm32f1xx_hal_uart.o(i.HAL_UART_Transmit), (214 bytes).
    Removing stm32f1xx_hal_uart.o(i.HAL_UART_Transmit_IT), (88 bytes).
    Removing stm32f1xx_hal_uart.o(i.UART_DMAAbortOnError), (20 bytes).
    Removing stm32f1xx_hal_uart.o(i.UART_DMAReceiveCplt), (70 bytes).
    Removing stm32f1xx_hal_uart.o(i.UART_DMARxAbortCallback), (52 bytes).
    Removing stm32f1xx_hal_uart.o(i.UART_DMARxHalfCplt), (14 bytes).
    Removing stm32f1xx_hal_uart.o(i.UART_DMARxOnlyAbortCallback), (24 bytes).
    Removing stm32f1xx_hal_uart.o(i.UART_DMATxAbortCallback), (52 bytes).
    Removing stm32f1xx_hal_uart.o(i.UART_DMATxOnlyAbortCallback), (24 bytes).
    Removing stm32f1xx_hal_uart.o(i.UART_EndTransmit_IT), (32 bytes).
    Removing stm32f1xx_hal_uart.o(i.UART_Receive_IT), (166 bytes).
    Removing stm32f1xx_hal_uart.o(i.UART_Transmit_IT), (104 bytes).
    Removing stm32f1xx_hal_uart.o(i.UART_WaitOnFlagUntilTimeout), (108 bytes).
    Removing stm32f1xx_hal_usart.o(.rev16_text), (4 bytes).
    Removing stm32f1xx_hal_usart.o(.revsh_text), (4 bytes).
    Removing stm32f1xx_hal_usart.o(.rrx_text), (6 bytes).
    Removing stm32f1xx_hal_flash.o(.rev16_text), (4 bytes).
    Removing stm32f1xx_hal_flash.o(.revsh_text), (4 bytes).
    Removing stm32f1xx_hal_flash.o(.rrx_text), (6 bytes).
    Removing stm32f1xx_hal_flash.o(i.HAL_FLASH_EndOfOperationCallback), (2 bytes).
    Removing stm32f1xx_hal_flash.o(i.HAL_FLASH_GetError), (12 bytes).
    Removing stm32f1xx_hal_flash.o(i.HAL_FLASH_IRQHandler), (384 bytes).
    Removing stm32f1xx_hal_flash.o(i.HAL_FLASH_OB_Launch), (8 bytes).
    Removing stm32f1xx_hal_flash.o(i.HAL_FLASH_OB_Lock), (20 bytes).
    Removing stm32f1xx_hal_flash.o(i.HAL_FLASH_OB_Unlock), (44 bytes).
    Removing stm32f1xx_hal_flash.o(i.HAL_FLASH_OperationErrorCallback), (2 bytes).
    Removing stm32f1xx_hal_flash.o(i.HAL_FLASH_Program_IT), (124 bytes).
    Removing stm32f1xx_hal_flash_ex.o(.rev16_text), (4 bytes).
    Removing stm32f1xx_hal_flash_ex.o(.revsh_text), (4 bytes).
    Removing stm32f1xx_hal_flash_ex.o(.rrx_text), (6 bytes).
    Removing stm32f1xx_hal_flash_ex.o(i.FLASH_OB_DisableWRP), (232 bytes).
    Removing stm32f1xx_hal_flash_ex.o(i.FLASH_OB_EnableWRP), (236 bytes).
    Removing stm32f1xx_hal_flash_ex.o(i.FLASH_OB_GetRDP), (28 bytes).
    Removing stm32f1xx_hal_flash_ex.o(i.FLASH_OB_GetUser), (16 bytes).
    Removing stm32f1xx_hal_flash_ex.o(i.FLASH_OB_GetWRP), (12 bytes).
    Removing stm32f1xx_hal_flash_ex.o(i.FLASH_OB_ProgramData), (76 bytes).
    Removing stm32f1xx_hal_flash_ex.o(i.FLASH_OB_RDP_LevelConfig), (124 bytes).
    Removing stm32f1xx_hal_flash_ex.o(i.FLASH_OB_UserConfig), (84 bytes).
    Removing stm32f1xx_hal_flash_ex.o(i.HAL_FLASHEx_Erase_IT), (100 bytes).
    Removing stm32f1xx_hal_flash_ex.o(i.HAL_FLASHEx_OBErase), (96 bytes).
    Removing stm32f1xx_hal_flash_ex.o(i.HAL_FLASHEx_OBGetConfig), (28 bytes).
    Removing stm32f1xx_hal_flash_ex.o(i.HAL_FLASHEx_OBGetUserData), (40 bytes).
    Removing stm32f1xx_hal_flash_ex.o(i.HAL_FLASHEx_OBProgram), (200 bytes).
    Removing pin.o(i.rt_pin_attach_irq), (48 bytes).
    Removing pin.o(i.rt_pin_detach_irq), (36 bytes).
    Removing pin.o(i.rt_pin_irq_enable), (40 bytes).
    Removing pin.o(i.rt_pin_read), (24 bytes).
    Removing dataqueue.o(i.rt_data_queue_init), (64 bytes).
    Removing dataqueue.o(i.rt_data_queue_peak), (90 bytes).
    Removing dataqueue.o(i.rt_data_queue_pop), (262 bytes).
    Removing dataqueue.o(i.rt_data_queue_push), (230 bytes).
    Removing dataqueue.o(i.rt_data_queue_reset), (106 bytes).
    Removing dataqueue.o(i.rt_list_init), (6 bytes).
    Removing dataqueue.o(i.rt_list_insert_before), (14 bytes).
    Removing dataqueue.o(i.rt_list_isempty), (16 bytes).
    Removing pipe.o(i.rt_pipe_close), (54 bytes).
    Removing pipe.o(i.rt_pipe_control), (6 bytes).
    Removing pipe.o(i.rt_pipe_create), (152 bytes).
    Removing pipe.o(i.rt_pipe_delete), (86 bytes).
    Removing pipe.o(i.rt_pipe_open), (54 bytes).
    Removing pipe.o(i.rt_pipe_read), (100 bytes).
    Removing pipe.o(i.rt_pipe_write), (100 bytes).
    Removing pipe.o(i.rt_wqueue_init), (16 bytes).
    Removing ringblk_buf.o(i.find_empty_blk_in_set), (42 bytes).
    Removing ringblk_buf.o(i.rt_rbb_blk_alloc), (306 bytes).
    Removing ringblk_buf.o(i.rt_rbb_blk_buf), (6 bytes).
    Removing ringblk_buf.o(i.rt_rbb_blk_free), (36 bytes).
    Removing ringblk_buf.o(i.rt_rbb_blk_get), (78 bytes).
    Removing ringblk_buf.o(i.rt_rbb_blk_put), (6 bytes).
    Removing ringblk_buf.o(i.rt_rbb_blk_queue_buf), (8 bytes).
    Removing ringblk_buf.o(i.rt_rbb_blk_queue_free), (36 bytes).
    Removing ringblk_buf.o(i.rt_rbb_blk_queue_get), (156 bytes).
    Removing ringblk_buf.o(i.rt_rbb_blk_queue_len), (34 bytes).
    Removing ringblk_buf.o(i.rt_rbb_blk_size), (8 bytes).
    Removing ringblk_buf.o(i.rt_rbb_create), (100 bytes).
    Removing ringblk_buf.o(i.rt_rbb_destroy), (24 bytes).
    Removing ringblk_buf.o(i.rt_rbb_get_buf_size), (6 bytes).
    Removing ringblk_buf.o(i.rt_rbb_init), (44 bytes).
    Removing ringblk_buf.o(i.rt_rbb_next_blk_queue_len), (110 bytes).
    Removing ringblk_buf.o(i.rt_slist_append), (20 bytes).
    Removing ringblk_buf.o(i.rt_slist_isempty), (14 bytes).
    Removing ringblk_buf.o(i.rt_slist_len), (18 bytes).
    Removing ringblk_buf.o(i.rt_slist_remove), (30 bytes).
    Removing ringbuffer.o(i.rt_ringbuffer_create), (56 bytes).
    Removing ringbuffer.o(i.rt_ringbuffer_data_len), (76 bytes).
    Removing ringbuffer.o(i.rt_ringbuffer_destroy), (18 bytes).
    Removing ringbuffer.o(i.rt_ringbuffer_get), (164 bytes).
    Removing ringbuffer.o(i.rt_ringbuffer_getchar), (88 bytes).
    Removing ringbuffer.o(i.rt_ringbuffer_init), (48 bytes).
    Removing ringbuffer.o(i.rt_ringbuffer_put), (168 bytes).
    Removing ringbuffer.o(i.rt_ringbuffer_put_force), (220 bytes).
    Removing ringbuffer.o(i.rt_ringbuffer_putchar), (90 bytes).
    Removing ringbuffer.o(i.rt_ringbuffer_putchar_force), (126 bytes).
    Removing ringbuffer.o(i.rt_ringbuffer_reset), (36 bytes).
    Removing ringbuffer.o(i.rt_ringbuffer_status), (42 bytes).
    Removing waitqueue.o(i.__wqueue_default_wake), (6 bytes).
    Removing waitqueue.o(i.rt_wqueue_add), (38 bytes).
    Removing waitqueue.o(i.rt_wqueue_remove), (38 bytes).
    Removing waitqueue.o(i.rt_wqueue_wait), (160 bytes).
    Removing waitqueue.o(i.rt_wqueue_wakeup), (102 bytes).
    Removing workqueue.o(i._delayed_work_timeout_handler), (60 bytes).
    Removing workqueue.o(i._workqueue_cancel_delayed_work), (112 bytes).
    Removing workqueue.o(i._workqueue_cancel_work), (54 bytes).
    Removing workqueue.o(i._workqueue_submit_delayed_work), (144 bytes).
    Removing workqueue.o(i._workqueue_submit_work), (104 bytes).
    Removing workqueue.o(i._workqueue_thread_entry), (152 bytes).
    Removing workqueue.o(i.rt_delayed_work_init), (32 bytes).
    Removing workqueue.o(i.rt_list_init), (6 bytes).
    Removing workqueue.o(i.rt_list_insert_after), (14 bytes).
    Removing workqueue.o(i.rt_list_remove), (18 bytes).
    Removing workqueue.o(i.rt_workqueue_cancel_all_work), (34 bytes).
    Removing workqueue.o(i.rt_workqueue_cancel_work), (32 bytes).
    Removing workqueue.o(i.rt_workqueue_cancel_work_sync), (56 bytes).
    Removing workqueue.o(i.rt_workqueue_create), (104 bytes).
    Removing workqueue.o(i.rt_workqueue_critical_work), (76 bytes).
    Removing workqueue.o(i.rt_workqueue_destroy), (20 bytes).
    Removing workqueue.o(i.rt_workqueue_dowork), (16 bytes).
    Removing workqueue.o(i.rt_workqueue_submit_work), (48 bytes).

395 unused section(s) (total 25270 bytes) removed from the image.

==============================================================================

Image Symbol Table

    Local Symbols

    Symbol Name                              Value     Ov Type        Size  Object(Section)

    ../clib/angel/boardlib.s                 0x00000000   Number         0  boardshut.o ABSOLUTE
    ../clib/angel/boardlib.s                 0x00000000   Number         0  boardinit3.o ABSOLUTE
    ../clib/angel/boardlib.s                 0x00000000   Number         0  boardinit2.o ABSOLUTE
    ../clib/angel/boardlib.s                 0x00000000   Number         0  boardinit1.o ABSOLUTE
    ../clib/angel/dczerorl2.s                0x00000000   Number         0  __dczerorl2.o ABSOLUTE
    ../clib/angel/handlers.s                 0x00000000   Number         0  __scatter_zi.o ABSOLUTE
    ../clib/angel/kernel.s                   0x00000000   Number         0  rtexit.o ABSOLUTE
    ../clib/angel/kernel.s                   0x00000000   Number         0  rtexit2.o ABSOLUTE
    ../clib/angel/kernel.s                   0x00000000   Number         0  __rtentry4.o ABSOLUTE
    ../clib/angel/kernel.s                   0x00000000   Number         0  __rtentry2.o ABSOLUTE
    ../clib/angel/kernel.s                   0x00000000   Number         0  __rtentry.o ABSOLUTE
    ../clib/angel/rt.s                       0x00000000   Number         0  rt_raise.o ABSOLUTE
    ../clib/angel/scatter.s                  0x00000000   Number         0  __scatter.o ABSOLUTE
    ../clib/angel/startup.s                  0x00000000   Number         0  __main.o ABSOLUTE
    ../clib/angel/sys.s                      0x00000000   Number         0  libspace.o ABSOLUTE
    ../clib/angel/sys.s                      0x00000000   Number         0  use_no_semi.o ABSOLUTE
    ../clib/angel/sys.s                      0x00000000   Number         0  indicate_semi.o ABSOLUTE
    ../clib/angel/sys.s                      0x00000000   Number         0  sys_stackheap_outer.o ABSOLUTE
    ../clib/angel/sysapp.c                   0x00000000   Number         0  sys_exit.o ABSOLUTE
    ../clib/angel/sysapp.c                   0x00000000   Number         0  sys_command.o ABSOLUTE
    ../clib/angel/sysapp.c                   0x00000000   Number         0  sys_wrch.o ABSOLUTE
    ../clib/armsys.c                         0x00000000   Number         0  argv_veneer.o ABSOLUTE
    ../clib/armsys.c                         0x00000000   Number         0  argv_veneer.o ABSOLUTE
    ../clib/armsys.c                         0x00000000   Number         0  no_argv.o ABSOLUTE
    ../clib/armsys.c                         0x00000000   Number         0  _get_argv_nomalloc.o ABSOLUTE
    ../clib/heapalloc.c                      0x00000000   Number         0  hrguard.o ABSOLUTE
    ../clib/heapaux.c                        0x00000000   Number         0  heapauxi.o ABSOLUTE
    ../clib/libinit.s                        0x00000000   Number         0  libinit2.o ABSOLUTE
    ../clib/libinit.s                        0x00000000   Number         0  libshutdown2.o ABSOLUTE
    ../clib/libinit.s                        0x00000000   Number         0  libinit.o ABSOLUTE
    ../clib/libinit.s                        0x00000000   Number         0  libshutdown.o ABSOLUTE
    ../clib/longlong.s                       0x00000000   Number         0  llushr.o ABSOLUTE
    ../clib/memcpset.s                       0x00000000   Number         0  rt_memcpy_w.o ABSOLUTE
    ../clib/memcpset.s                       0x00000000   Number         0  rt_memclr_w.o ABSOLUTE
    ../clib/memcpset.s                       0x00000000   Number         0  rt_memcpy_v6.o ABSOLUTE
    ../clib/signal.c                         0x00000000   Number         0  defsig_rtred_inner.o ABSOLUTE
    ../clib/signal.c                         0x00000000   Number         0  defsig_stak_inner.o ABSOLUTE
    ../clib/signal.c                         0x00000000   Number         0  defsig_pvfn_inner.o ABSOLUTE
    ../clib/signal.c                         0x00000000   Number         0  defsig_cppl_inner.o ABSOLUTE
    ../clib/signal.c                         0x00000000   Number         0  defsig_other.o ABSOLUTE
    ../clib/signal.c                         0x00000000   Number         0  defsig_fpe_inner.o ABSOLUTE
    ../clib/signal.c                         0x00000000   Number         0  defsig_abrt_inner.o ABSOLUTE
    ../clib/signal.c                         0x00000000   Number         0  defsig_general.o ABSOLUTE
    ../clib/signal.c                         0x00000000   Number         0  __raise.o ABSOLUTE
    ../clib/signal.c                         0x00000000   Number         0  defsig_rtmem_inner.o ABSOLUTE
    ../clib/signal.c                         0x00000000   Number         0  defsig_segv_inner.o ABSOLUTE
    ../clib/signal.c                         0x00000000   Number         0  defsig_exit.o ABSOLUTE
    ../clib/signal.c                         0x00000000   Number         0  defsig_rtmem_formal.o ABSOLUTE
    ../clib/signal.c                         0x00000000   Number         0  defsig_rtmem_outer.o ABSOLUTE
    ../clib/signal.s                         0x00000000   Number         0  defsig.o ABSOLUTE
    ../clib/stdlib.c                         0x00000000   Number         0  exit.o ABSOLUTE
    ../fplib/fpinit.s                        0x00000000   Number         0  fpinit.o ABSOLUTE
    ..\..\..\components\drivers\misc\pin.c   0x00000000   Number         0  pin.o ABSOLUTE
    ..\..\..\components\drivers\serial\serial.c 0x00000000   Number         0  serial.o ABSOLUTE
    ..\..\..\components\drivers\src\completion.c 0x00000000   Number         0  completion.o ABSOLUTE
    ..\..\..\components\drivers\src\dataqueue.c 0x00000000   Number         0  dataqueue.o ABSOLUTE
    ..\..\..\components\drivers\src\pipe.c   0x00000000   Number         0  pipe.o ABSOLUTE
    ..\..\..\components\drivers\src\ringblk_buf.c 0x00000000   Number         0  ringblk_buf.o ABSOLUTE
    ..\..\..\components\drivers\src\ringbuffer.c 0x00000000   Number         0  ringbuffer.o ABSOLUTE
    ..\..\..\components\drivers\src\waitqueue.c 0x00000000   Number         0  waitqueue.o ABSOLUTE
    ..\..\..\components\drivers\src\workqueue.c 0x00000000   Number         0  workqueue.o ABSOLUTE
    ..\..\..\components\libc\compilers\common\time.c 0x00000000   Number         0  time.o ABSOLUTE
    ..\..\..\libcpu\arm\common\backtrace.c   0x00000000   Number         0  backtrace.o ABSOLUTE
    ..\..\..\libcpu\arm\common\div0.c        0x00000000   Number         0  div0.o ABSOLUTE
    ..\..\..\libcpu\arm\common\showmem.c     0x00000000   Number         0  showmem.o ABSOLUTE
    ..\..\..\libcpu\arm\cortex-m3\context_rvds.S 0x00000000   Number         0  context_rvds.o ABSOLUTE
    ..\..\..\libcpu\arm\cortex-m3\cpuport.c  0x00000000   Number         0  cpuport.o ABSOLUTE
    ..\..\..\src\clock.c                     0x00000000   Number         0  clock.o ABSOLUTE
    ..\..\..\src\components.c                0x00000000   Number         0  components.o ABSOLUTE
    ..\..\..\src\device.c                    0x00000000   Number         0  device.o ABSOLUTE
    ..\..\..\src\idle.c                      0x00000000   Number         0  idle.o ABSOLUTE
    ..\..\..\src\ipc.c                       0x00000000   Number         0  ipc.o ABSOLUTE
    ..\..\..\src\irq.c                       0x00000000   Number         0  irq.o ABSOLUTE
    ..\..\..\src\kservice.c                  0x00000000   Number         0  kservice.o ABSOLUTE
    ..\..\..\src\mem.c                       0x00000000   Number         0  mem.o ABSOLUTE
    ..\..\..\src\object.c                    0x00000000   Number         0  object.o ABSOLUTE
    ..\..\..\src\scheduler.c                 0x00000000   Number         0  scheduler.o ABSOLUTE
    ..\..\..\src\signal.c                    0x00000000   Number         0  signal.o ABSOLUTE
    ..\..\..\src\thread.c                    0x00000000   Number         0  thread.o ABSOLUTE
    ..\..\..\src\timer.c                     0x00000000   Number         0  timer.o ABSOLUTE
    ..\\..\\..\\libcpu\\arm\\cortex-m3\\cpuport.c 0x00000000   Number         0  cpuport.o ABSOLUTE
    ..\\..\\..\\src\\components.c            0x00000000   Number         0  components.o ABSOLUTE
    ..\\libraries\\HAL_Drivers\\drv_common.c 0x00000000   Number         0  drv_common.o ABSOLUTE
    ..\\libraries\\HAL_Drivers\\drv_gpio.c   0x00000000   Number         0  drv_gpio.o ABSOLUTE
    ..\\libraries\\HAL_Drivers\\drv_usart.c  0x00000000   Number         0  drv_usart.o ABSOLUTE
    ..\\libraries\\STM32F1xx_HAL\\CMSIS\\Device\\ST\\STM32F1xx\\Source\\Templates\\system_stm32f1xx.c 0x00000000   Number         0  system_stm32f1xx.o ABSOLUTE
    ..\\libraries\\STM32F1xx_HAL\\STM32F1xx_HAL_Driver\\Src\\stm32f1xx_hal.c 0x00000000   Number         0  stm32f1xx_hal.o ABSOLUTE
    ..\\libraries\\STM32F1xx_HAL\\STM32F1xx_HAL_Driver\\Src\\stm32f1xx_hal_cec.c 0x00000000   Number         0  stm32f1xx_hal_cec.o ABSOLUTE
    ..\\libraries\\STM32F1xx_HAL\\STM32F1xx_HAL_Driver\\Src\\stm32f1xx_hal_cortex.c 0x00000000   Number         0  stm32f1xx_hal_cortex.o ABSOLUTE
    ..\\libraries\\STM32F1xx_HAL\\STM32F1xx_HAL_Driver\\Src\\stm32f1xx_hal_crc.c 0x00000000   Number         0  stm32f1xx_hal_crc.o ABSOLUTE
    ..\\libraries\\STM32F1xx_HAL\\STM32F1xx_HAL_Driver\\Src\\stm32f1xx_hal_dma.c 0x00000000   Number         0  stm32f1xx_hal_dma.o ABSOLUTE
    ..\\libraries\\STM32F1xx_HAL\\STM32F1xx_HAL_Driver\\Src\\stm32f1xx_hal_flash.c 0x00000000   Number         0  stm32f1xx_hal_flash.o ABSOLUTE
    ..\\libraries\\STM32F1xx_HAL\\STM32F1xx_HAL_Driver\\Src\\stm32f1xx_hal_flash_ex.c 0x00000000   Number         0  stm32f1xx_hal_flash_ex.o ABSOLUTE
    ..\\libraries\\STM32F1xx_HAL\\STM32F1xx_HAL_Driver\\Src\\stm32f1xx_hal_gpio.c 0x00000000   Number         0  stm32f1xx_hal_gpio.o ABSOLUTE
    ..\\libraries\\STM32F1xx_HAL\\STM32F1xx_HAL_Driver\\Src\\stm32f1xx_hal_gpio_ex.c 0x00000000   Number         0  stm32f1xx_hal_gpio_ex.o ABSOLUTE
    ..\\libraries\\STM32F1xx_HAL\\STM32F1xx_HAL_Driver\\Src\\stm32f1xx_hal_pwr.c 0x00000000   Number         0  stm32f1xx_hal_pwr.o ABSOLUTE
    ..\\libraries\\STM32F1xx_HAL\\STM32F1xx_HAL_Driver\\Src\\stm32f1xx_hal_rcc.c 0x00000000   Number         0  stm32f1xx_hal_rcc.o ABSOLUTE
    ..\\libraries\\STM32F1xx_HAL\\STM32F1xx_HAL_Driver\\Src\\stm32f1xx_hal_rcc_ex.c 0x00000000   Number         0  stm32f1xx_hal_rcc_ex.o ABSOLUTE
    ..\\libraries\\STM32F1xx_HAL\\STM32F1xx_HAL_Driver\\Src\\stm32f1xx_hal_sram.c 0x00000000   Number         0  stm32f1xx_hal_sram.o ABSOLUTE
    ..\\libraries\\STM32F1xx_HAL\\STM32F1xx_HAL_Driver\\Src\\stm32f1xx_hal_uart.c 0x00000000   Number         0  stm32f1xx_hal_uart.o ABSOLUTE
    ..\\libraries\\STM32F1xx_HAL\\STM32F1xx_HAL_Driver\\Src\\stm32f1xx_hal_usart.c 0x00000000   Number         0  stm32f1xx_hal_usart.o ABSOLUTE
    ..\libraries\HAL_Drivers\drv_common.c    0x00000000   Number         0  drv_common.o ABSOLUTE
    ..\libraries\HAL_Drivers\drv_gpio.c      0x00000000   Number         0  drv_gpio.o ABSOLUTE
    ..\libraries\HAL_Drivers\drv_usart.c     0x00000000   Number         0  drv_usart.o ABSOLUTE
    ..\libraries\STM32F1xx_HAL\CMSIS\Device\ST\STM32F1xx\Source\Templates\arm\startup_stm32f103xe.s 0x00000000   Number         0  startup_stm32f103xe.o ABSOLUTE
    ..\libraries\STM32F1xx_HAL\CMSIS\Device\ST\STM32F1xx\Source\Templates\system_stm32f1xx.c 0x00000000   Number         0  system_stm32f1xx.o ABSOLUTE
    ..\libraries\STM32F1xx_HAL\STM32F1xx_HAL_Driver\Src\stm32f1xx_hal.c 0x00000000   Number         0  stm32f1xx_hal.o ABSOLUTE
    ..\libraries\STM32F1xx_HAL\STM32F1xx_HAL_Driver\Src\stm32f1xx_hal_cec.c 0x00000000   Number         0  stm32f1xx_hal_cec.o ABSOLUTE
    ..\libraries\STM32F1xx_HAL\STM32F1xx_HAL_Driver\Src\stm32f1xx_hal_cortex.c 0x00000000   Number         0  stm32f1xx_hal_cortex.o ABSOLUTE
    ..\libraries\STM32F1xx_HAL\STM32F1xx_HAL_Driver\Src\stm32f1xx_hal_crc.c 0x00000000   Number         0  stm32f1xx_hal_crc.o ABSOLUTE
    ..\libraries\STM32F1xx_HAL\STM32F1xx_HAL_Driver\Src\stm32f1xx_hal_dma.c 0x00000000   Number         0  stm32f1xx_hal_dma.o ABSOLUTE
    ..\libraries\STM32F1xx_HAL\STM32F1xx_HAL_Driver\Src\stm32f1xx_hal_flash.c 0x00000000   Number         0  stm32f1xx_hal_flash.o ABSOLUTE
    ..\libraries\STM32F1xx_HAL\STM32F1xx_HAL_Driver\Src\stm32f1xx_hal_flash_ex.c 0x00000000   Number         0  stm32f1xx_hal_flash_ex.o ABSOLUTE
    ..\libraries\STM32F1xx_HAL\STM32F1xx_HAL_Driver\Src\stm32f1xx_hal_gpio.c 0x00000000   Number         0  stm32f1xx_hal_gpio.o ABSOLUTE
    ..\libraries\STM32F1xx_HAL\STM32F1xx_HAL_Driver\Src\stm32f1xx_hal_gpio_ex.c 0x00000000   Number         0  stm32f1xx_hal_gpio_ex.o ABSOLUTE
    ..\libraries\STM32F1xx_HAL\STM32F1xx_HAL_Driver\Src\stm32f1xx_hal_pwr.c 0x00000000   Number         0  stm32f1xx_hal_pwr.o ABSOLUTE
    ..\libraries\STM32F1xx_HAL\STM32F1xx_HAL_Driver\Src\stm32f1xx_hal_rcc.c 0x00000000   Number         0  stm32f1xx_hal_rcc.o ABSOLUTE
    ..\libraries\STM32F1xx_HAL\STM32F1xx_HAL_Driver\Src\stm32f1xx_hal_rcc_ex.c 0x00000000   Number         0  stm32f1xx_hal_rcc_ex.o ABSOLUTE
    ..\libraries\STM32F1xx_HAL\STM32F1xx_HAL_Driver\Src\stm32f1xx_hal_sram.c 0x00000000   Number         0  stm32f1xx_hal_sram.o ABSOLUTE
    ..\libraries\STM32F1xx_HAL\STM32F1xx_HAL_Driver\Src\stm32f1xx_hal_uart.c 0x00000000   Number         0  stm32f1xx_hal_uart.o ABSOLUTE
    ..\libraries\STM32F1xx_HAL\STM32F1xx_HAL_Driver\Src\stm32f1xx_hal_usart.c 0x00000000   Number         0  stm32f1xx_hal_usart.o ABSOLUTE
    applications\\main.c                     0x00000000   Number         0  main.o ABSOLUTE
    applications\\my_flash.c                 0x00000000   Number         0  my_flash.o ABSOLUTE
    applications\\my_iap.c                   0x00000000   Number         0  my_iap.o ABSOLUTE
    applications\\my_uart.c                  0x00000000   Number         0  my_uart.o ABSOLUTE
    applications\main.c                      0x00000000   Number         0  main.o ABSOLUTE
    applications\my_flash.c                  0x00000000   Number         0  my_flash.o ABSOLUTE
    applications\my_iap.c                    0x00000000   Number         0  my_iap.o ABSOLUTE
    applications\my_uart.c                   0x00000000   Number         0  my_uart.o ABSOLUTE
    board\CubeMX_Config\Src\stm32f1xx_hal_msp.c 0x00000000   Number         0  stm32f1xx_hal_msp.o ABSOLUTE
    board\\CubeMX_Config\\Src\\stm32f1xx_hal_msp.c 0x00000000   Number         0  stm32f1xx_hal_msp.o ABSOLUTE
    board\\board.c                           0x00000000   Number         0  board.o ABSOLUTE
    board\board.c                            0x00000000   Number         0  board.o ABSOLUTE
    dc.s                                     0x00000000   Number         0  dc.o ABSOLUTE
    RESET                                    0x08000000   Section      304  startup_stm32f103xe.o(RESET)
    !!!main                                  0x08000130   Section        8  __main.o(!!!main)
    !!!scatter                               0x08000138   Section       52  __scatter.o(!!!scatter)
    !!dczerorl2                              0x0800016c   Section       90  __dczerorl2.o(!!dczerorl2)
    !!handler_zi                             0x080001c8   Section       28  __scatter_zi.o(!!handler_zi)
    .ARM.Collect$$libinit$$00000000          0x080001e4   Section        2  libinit.o(.ARM.Collect$$libinit$$00000000)
    .ARM.Collect$$libinit$$00000002          0x080001e6   Section        0  libinit2.o(.ARM.Collect$$libinit$$00000002)
    .ARM.Collect$$libinit$$00000004          0x080001e6   Section        0  libinit2.o(.ARM.Collect$$libinit$$00000004)
    .ARM.Collect$$libinit$$0000000A          0x080001e6   Section        0  libinit2.o(.ARM.Collect$$libinit$$0000000A)
    .ARM.Collect$$libinit$$0000000C          0x080001e6   Section        0  libinit2.o(.ARM.Collect$$libinit$$0000000C)
    .ARM.Collect$$libinit$$0000000E          0x080001e6   Section        0  libinit2.o(.ARM.Collect$$libinit$$0000000E)
    .ARM.Collect$$libinit$$00000011          0x080001e6   Section        0  libinit2.o(.ARM.Collect$$libinit$$00000011)
    .ARM.Collect$$libinit$$00000013          0x080001e6   Section        0  libinit2.o(.ARM.Collect$$libinit$$00000013)
    .ARM.Collect$$libinit$$00000015          0x080001e6   Section        0  libinit2.o(.ARM.Collect$$libinit$$00000015)
    .ARM.Collect$$libinit$$00000017          0x080001e6   Section        0  libinit2.o(.ARM.Collect$$libinit$$00000017)
    .ARM.Collect$$libinit$$00000019          0x080001e6   Section        0  libinit2.o(.ARM.Collect$$libinit$$00000019)
    .ARM.Collect$$libinit$$0000001B          0x080001e6   Section        0  libinit2.o(.ARM.Collect$$libinit$$0000001B)
    .ARM.Collect$$libinit$$0000001D          0x080001e6   Section        0  libinit2.o(.ARM.Collect$$libinit$$0000001D)
    .ARM.Collect$$libinit$$0000001F          0x080001e6   Section        0  libinit2.o(.ARM.Collect$$libinit$$0000001F)
    .ARM.Collect$$libinit$$00000021          0x080001e6   Section        0  libinit2.o(.ARM.Collect$$libinit$$00000021)
    .ARM.Collect$$libinit$$00000023          0x080001e6   Section        0  libinit2.o(.ARM.Collect$$libinit$$00000023)
    .ARM.Collect$$libinit$$00000025          0x080001e6   Section        0  libinit2.o(.ARM.Collect$$libinit$$00000025)
    .ARM.Collect$$libinit$$0000002C          0x080001e6   Section        0  libinit2.o(.ARM.Collect$$libinit$$0000002C)
    .ARM.Collect$$libinit$$0000002E          0x080001e6   Section        0  libinit2.o(.ARM.Collect$$libinit$$0000002E)
    .ARM.Collect$$libinit$$00000030          0x080001e6   Section        0  libinit2.o(.ARM.Collect$$libinit$$00000030)
    .ARM.Collect$$libinit$$00000032          0x080001e6   Section        0  libinit2.o(.ARM.Collect$$libinit$$00000032)
    .ARM.Collect$$libinit$$00000033          0x080001e6   Section        2  libinit2.o(.ARM.Collect$$libinit$$00000033)
    .ARM.Collect$$libshutdown$$00000000      0x080001e8   Section        2  libshutdown.o(.ARM.Collect$$libshutdown$$00000000)
    .ARM.Collect$$libshutdown$$00000002      0x080001ea   Section        0  libshutdown2.o(.ARM.Collect$$libshutdown$$00000002)
    .ARM.Collect$$libshutdown$$00000004      0x080001ea   Section        0  libshutdown2.o(.ARM.Collect$$libshutdown$$00000004)
    .ARM.Collect$$libshutdown$$00000007      0x080001ea   Section        0  libshutdown2.o(.ARM.Collect$$libshutdown$$00000007)
    .ARM.Collect$$libshutdown$$0000000A      0x080001ea   Section        0  libshutdown2.o(.ARM.Collect$$libshutdown$$0000000A)
    .ARM.Collect$$libshutdown$$0000000C      0x080001ea   Section        0  libshutdown2.o(.ARM.Collect$$libshutdown$$0000000C)
    .ARM.Collect$$libshutdown$$0000000F      0x080001ea   Section        0  libshutdown2.o(.ARM.Collect$$libshutdown$$0000000F)
    .ARM.Collect$$libshutdown$$00000010      0x080001ea   Section        2  libshutdown2.o(.ARM.Collect$$libshutdown$$00000010)
    .ARM.Collect$$rtentry$$00000000          0x080001ec   Section        0  __rtentry.o(.ARM.Collect$$rtentry$$00000000)
    .ARM.Collect$$rtentry$$00000002          0x080001ec   Section        0  __rtentry2.o(.ARM.Collect$$rtentry$$00000002)
    .ARM.Collect$$rtentry$$00000004          0x080001ec   Section        6  __rtentry4.o(.ARM.Collect$$rtentry$$00000004)
    .ARM.Collect$$rtentry$$00000009          0x080001f2   Section        0  __rtentry2.o(.ARM.Collect$$rtentry$$00000009)
    .ARM.Collect$$rtentry$$0000000A          0x080001f2   Section        4  __rtentry2.o(.ARM.Collect$$rtentry$$0000000A)
    .ARM.Collect$$rtentry$$0000000C          0x080001f6   Section        0  __rtentry2.o(.ARM.Collect$$rtentry$$0000000C)
    .ARM.Collect$$rtentry$$0000000D          0x080001f6   Section        8  __rtentry2.o(.ARM.Collect$$rtentry$$0000000D)
    .ARM.Collect$$rtexit$$00000000           0x080001fe   Section        2  rtexit.o(.ARM.Collect$$rtexit$$00000000)
    .ARM.Collect$$rtexit$$00000002           0x08000200   Section        0  rtexit2.o(.ARM.Collect$$rtexit$$00000002)
    .ARM.Collect$$rtexit$$00000003           0x08000200   Section        4  rtexit2.o(.ARM.Collect$$rtexit$$00000003)
    .ARM.Collect$$rtexit$$00000004           0x08000204   Section        6  rtexit2.o(.ARM.Collect$$rtexit$$00000004)
    .emb_text                                0x0800020c   Section       16  cpuport.o(.emb_text)
    .text                                    0x0800021c   Section      244  context_rvds.o(.text)
    .text                                    0x08000310   Section       64  startup_stm32f103xe.o(.text)
    .text                                    0x08000350   Section       38  llushr.o(.text)
    .text                                    0x08000376   Section       78  rt_memclr_w.o(.text)
    .text                                    0x080003c4   Section        0  heapauxi.o(.text)
    .text                                    0x080003ca   Section       74  sys_stackheap_outer.o(.text)
    .text                                    0x08000414   Section        0  exit.o(.text)
    .text                                    0x08000428   Section        8  libspace.o(.text)
    .text                                    0x08000430   Section        0  sys_exit.o(.text)
    .text                                    0x0800043c   Section        2  use_no_semi.o(.text)
    .text                                    0x0800043e   Section        0  indicate_semi.o(.text)
    i.$Sub$$main                             0x0800043e   Section        0  components.o(i.$Sub$$main)
    i.DMA_SetConfig                          0x08000448   Section        0  stm32f1xx_hal_dma.o(i.DMA_SetConfig)
    DMA_SetConfig                            0x08000449   Thumb Code    44  stm32f1xx_hal_dma.o(i.DMA_SetConfig)
    i.EXTI0_IRQHandler                       0x08000474   Section        0  drv_gpio.o(i.EXTI0_IRQHandler)
    i.EXTI15_10_IRQHandler                   0x08000486   Section        0  drv_gpio.o(i.EXTI15_10_IRQHandler)
    i.EXTI1_IRQHandler                       0x080004c2   Section        0  drv_gpio.o(i.EXTI1_IRQHandler)
    i.EXTI2_IRQHandler                       0x080004d4   Section        0  drv_gpio.o(i.EXTI2_IRQHandler)
    i.EXTI3_IRQHandler                       0x080004e6   Section        0  drv_gpio.o(i.EXTI3_IRQHandler)
    i.EXTI4_IRQHandler                       0x080004f8   Section        0  drv_gpio.o(i.EXTI4_IRQHandler)
    i.EXTI9_5_IRQHandler                     0x0800050a   Section        0  drv_gpio.o(i.EXTI9_5_IRQHandler)
    i.FLASH_MassErase                        0x08000538   Section        0  stm32f1xx_hal_flash_ex.o(i.FLASH_MassErase)
    FLASH_MassErase                          0x08000539   Thumb Code    30  stm32f1xx_hal_flash_ex.o(i.FLASH_MassErase)
    i.FLASH_PageErase                        0x08000560   Section        0  stm32f1xx_hal_flash_ex.o(i.FLASH_PageErase)
    i.FLASH_Program_HalfWord                 0x08000588   Section        0  stm32f1xx_hal_flash.o(i.FLASH_Program_HalfWord)
    FLASH_Program_HalfWord                   0x08000589   Thumb Code    22  stm32f1xx_hal_flash.o(i.FLASH_Program_HalfWord)
    i.FLASH_SetErrorCode                     0x080005a8   Section        0  stm32f1xx_hal_flash.o(i.FLASH_SetErrorCode)
    FLASH_SetErrorCode                       0x080005a9   Thumb Code   124  stm32f1xx_hal_flash.o(i.FLASH_SetErrorCode)
    i.FLASH_WaitForLastOperation             0x0800062c   Section        0  stm32f1xx_hal_flash.o(i.FLASH_WaitForLastOperation)
    i.HAL_DMA_Start_IT                       0x0800069c   Section        0  stm32f1xx_hal_dma.o(i.HAL_DMA_Start_IT)
    i.HAL_FLASHEx_Erase                      0x08000738   Section        0  stm32f1xx_hal_flash_ex.o(i.HAL_FLASHEx_Erase)
    i.HAL_FLASH_Lock                         0x080007e8   Section        0  stm32f1xx_hal_flash.o(i.HAL_FLASH_Lock)
    i.HAL_FLASH_Program                      0x080007fc   Section        0  stm32f1xx_hal_flash.o(i.HAL_FLASH_Program)
    i.HAL_FLASH_Unlock                       0x080008ac   Section        0  stm32f1xx_hal_flash.o(i.HAL_FLASH_Unlock)
    i.HAL_GPIO_DeInit                        0x080008dc   Section        0  stm32f1xx_hal_gpio.o(i.HAL_GPIO_DeInit)
    i.HAL_GPIO_EXTI_Callback                 0x08000a30   Section        0  drv_gpio.o(i.HAL_GPIO_EXTI_Callback)
    i.HAL_GPIO_EXTI_IRQHandler               0x08000a6c   Section        0  stm32f1xx_hal_gpio.o(i.HAL_GPIO_EXTI_IRQHandler)
    i.HAL_GPIO_Init                          0x08000a88   Section        0  stm32f1xx_hal_gpio.o(i.HAL_GPIO_Init)
    i.HAL_GPIO_ReadPin                       0x08000dc8   Section        0  stm32f1xx_hal_gpio.o(i.HAL_GPIO_ReadPin)
    i.HAL_GPIO_WritePin                      0x08000dd8   Section        0  stm32f1xx_hal_gpio.o(i.HAL_GPIO_WritePin)
    i.HAL_GetTick                            0x08000de4   Section        0  drv_common.o(i.HAL_GetTick)
    i.HAL_IncTick                            0x08000df8   Section        0  stm32f1xx_hal.o(i.HAL_IncTick)
    i.HAL_Init                               0x08000e10   Section        0  stm32f1xx_hal.o(i.HAL_Init)
    i.HAL_InitTick                           0x08000e38   Section        0  drv_common.o(i.HAL_InitTick)
    i.HAL_MspInit                            0x08000e40   Section        0  stm32f1xx_hal_msp.o(i.HAL_MspInit)
    i.HAL_NVIC_DisableIRQ                    0x08000e94   Section        0  stm32f1xx_hal_cortex.o(i.HAL_NVIC_DisableIRQ)
    i.HAL_NVIC_EnableIRQ                     0x08000ed8   Section        0  stm32f1xx_hal_cortex.o(i.HAL_NVIC_EnableIRQ)
    i.HAL_NVIC_SetPriority                   0x08000ef8   Section        0  stm32f1xx_hal_cortex.o(i.HAL_NVIC_SetPriority)
    i.HAL_NVIC_SetPriorityGrouping           0x08000f74   Section        0  stm32f1xx_hal_cortex.o(i.HAL_NVIC_SetPriorityGrouping)
    i.HAL_RCC_ClockConfig                    0x08000f9c   Section        0  stm32f1xx_hal_rcc.o(i.HAL_RCC_ClockConfig)
    i.HAL_RCC_GetHCLKFreq                    0x08001128   Section        0  stm32f1xx_hal_rcc.o(i.HAL_RCC_GetHCLKFreq)
    i.HAL_RCC_GetPCLK1Freq                   0x08001134   Section        0  stm32f1xx_hal_rcc.o(i.HAL_RCC_GetPCLK1Freq)
    i.HAL_RCC_GetPCLK2Freq                   0x08001154   Section        0  stm32f1xx_hal_rcc.o(i.HAL_RCC_GetPCLK2Freq)
    i.HAL_RCC_GetSysClockFreq                0x08001174   Section        0  stm32f1xx_hal_rcc.o(i.HAL_RCC_GetSysClockFreq)
    i.HAL_RCC_OscConfig                      0x08001208   Section        0  stm32f1xx_hal_rcc.o(i.HAL_RCC_OscConfig)
    i.HAL_SYSTICK_CLKSourceConfig            0x0800166c   Section        0  stm32f1xx_hal_cortex.o(i.HAL_SYSTICK_CLKSourceConfig)
    i.HAL_SYSTICK_Config                     0x08001694   Section        0  stm32f1xx_hal_cortex.o(i.HAL_SYSTICK_Config)
    i.HAL_UART_ErrorCallback                 0x080016c8   Section        0  stm32f1xx_hal_uart.o(i.HAL_UART_ErrorCallback)
    i.HAL_UART_Init                          0x080016ca   Section        0  stm32f1xx_hal_uart.o(i.HAL_UART_Init)
    i.HAL_UART_MspInit                       0x0800173c   Section        0  stm32f1xx_hal_msp.o(i.HAL_UART_MspInit)
    i.HAL_UART_Transmit_DMA                  0x080017c4   Section        0  stm32f1xx_hal_uart.o(i.HAL_UART_Transmit_DMA)
    i.HAL_UART_TxCpltCallback                0x08001860   Section        0  stm32f1xx_hal_uart.o(i.HAL_UART_TxCpltCallback)
    i.HAL_UART_TxHalfCpltCallback            0x08001862   Section        0  stm32f1xx_hal_uart.o(i.HAL_UART_TxHalfCpltCallback)
    i.Iap_Map_Init                           0x08001864   Section        0  my_iap.o(i.Iap_Map_Init)
    i.LedRun                                 0x080018a0   Section        0  my_iap.o(i.LedRun)
    i.MX_GPIO_Init                           0x080019c4   Section        0  my_iap.o(i.MX_GPIO_Init)
    i.RCC_Delay                              0x08001a1c   Section        0  stm32f1xx_hal_rcc.o(i.RCC_Delay)
    RCC_Delay                                0x08001a1d   Thumb Code    36  stm32f1xx_hal_rcc.o(i.RCC_Delay)
    i.SysTick_Handler                        0x08001a44   Section        0  drv_common.o(i.SysTick_Handler)
    i.SystemClock_Config                     0x08001a58   Section        0  board.o(i.SystemClock_Config)
    i.SystemInit                             0x08001ad8   Section        0  system_stm32f1xx.o(i.SystemInit)
    i.UART_DMAError                          0x08001b30   Section        0  stm32f1xx_hal_uart.o(i.UART_DMAError)
    UART_DMAError                            0x08001b31   Thumb Code    80  stm32f1xx_hal_uart.o(i.UART_DMAError)
    i.UART_DMATransmitCplt                   0x08001b80   Section        0  stm32f1xx_hal_uart.o(i.UART_DMATransmitCplt)
    UART_DMATransmitCplt                     0x08001b81   Thumb Code    54  stm32f1xx_hal_uart.o(i.UART_DMATransmitCplt)
    i.UART_DMATxHalfCplt                     0x08001bb6   Section        0  stm32f1xx_hal_uart.o(i.UART_DMATxHalfCplt)
    UART_DMATxHalfCplt                       0x08001bb7   Thumb Code    14  stm32f1xx_hal_uart.o(i.UART_DMATxHalfCplt)
    i.UART_EndRxTransfer                     0x08001bc4   Section        0  stm32f1xx_hal_uart.o(i.UART_EndRxTransfer)
    UART_EndRxTransfer                       0x08001bc5   Thumb Code    32  stm32f1xx_hal_uart.o(i.UART_EndRxTransfer)
    i.UART_EndTxTransfer                     0x08001be4   Section        0  stm32f1xx_hal_uart.o(i.UART_EndTxTransfer)
    UART_EndTxTransfer                       0x08001be5   Thumb Code    20  stm32f1xx_hal_uart.o(i.UART_EndTxTransfer)
    i.UART_SetConfig                         0x08001bf8   Section        0  stm32f1xx_hal_uart.o(i.UART_SetConfig)
    UART_SetConfig                           0x08001bf9   Thumb Code   412  stm32f1xx_hal_uart.o(i.UART_SetConfig)
    i.USART1_IRQHandler                      0x08001d98   Section        0  drv_usart.o(i.USART1_IRQHandler)
    i._Error_Handler                         0x08001db0   Section        0  drv_common.o(i._Error_Handler)
    i.__NVIC_GetPriorityGrouping             0x08001db4   Section        0  stm32f1xx_hal_cortex.o(i.__NVIC_GetPriorityGrouping)
    __NVIC_GetPriorityGrouping               0x08001db5   Thumb Code    10  stm32f1xx_hal_cortex.o(i.__NVIC_GetPriorityGrouping)
    i.__NVIC_SetPriority                     0x08001dc4   Section        0  stm32f1xx_hal_cortex.o(i.__NVIC_SetPriority)
    __NVIC_SetPriority                       0x08001dc5   Thumb Code    32  stm32f1xx_hal_cortex.o(i.__NVIC_SetPriority)
    i._get_highest_priority_thread           0x08001dec   Section        0  scheduler.o(i._get_highest_priority_thread)
    _get_highest_priority_thread             0x08001ded   Thumb Code    30  scheduler.o(i._get_highest_priority_thread)
    i._has_defunct_thread                    0x08001e14   Section        0  idle.o(i._has_defunct_thread)
    _has_defunct_thread                      0x08001e15   Thumb Code    16  idle.o(i._has_defunct_thread)
    i._pin_control                           0x08001e28   Section        0  pin.o(i._pin_control)
    _pin_control                             0x08001e29   Thumb Code    40  pin.o(i._pin_control)
    i._pin_read                              0x08001e50   Section        0  pin.o(i._pin_read)
    _pin_read                                0x08001e51   Thumb Code    46  pin.o(i._pin_read)
    i._pin_write                             0x08001e7e   Section        0  pin.o(i._pin_write)
    _pin_write                               0x08001e7f   Thumb Code    46  pin.o(i._pin_write)
    i._rt_thread_init                        0x08001eac   Section        0  thread.o(i._rt_thread_init)
    _rt_thread_init                          0x08001ead   Thumb Code   124  thread.o(i._rt_thread_init)
    i._rt_timer_init                         0x08001f30   Section        0  timer.o(i._rt_timer_init)
    _rt_timer_init                           0x08001f31   Thumb Code    66  timer.o(i._rt_timer_init)
    i._rt_timer_remove                       0x08001f72   Section        0  timer.o(i._rt_timer_remove)
    _rt_timer_remove                         0x08001f73   Thumb Code    46  timer.o(i._rt_timer_remove)
    i._serial_check_buffer_size              0x08001fa0   Section        0  serial.o(i._serial_check_buffer_size)
    _serial_check_buffer_size                0x08001fa1   Thumb Code    14  serial.o(i._serial_check_buffer_size)
    i._serial_int_rx                         0x08001fb4   Section        0  serial.o(i._serial_int_rx)
    _serial_int_rx                           0x08001fb5   Thumb Code   112  serial.o(i._serial_int_rx)
    i.bit2bitno                              0x08002024   Section        0  drv_gpio.o(i.bit2bitno)
    bit2bitno                                0x08002025   Thumb Code    30  drv_gpio.o(i.bit2bitno)
    i.dev_iap_uart_func                      0x08002044   Section        0  my_iap.o(i.dev_iap_uart_func)
    dev_iap_uart_func                        0x08002045   Thumb Code    46  my_iap.o(i.dev_iap_uart_func)
    i.get_pin                                0x08002078   Section        0  drv_gpio.o(i.get_pin)
    get_pin                                  0x08002079   Thumb Code    30  drv_gpio.o(i.get_pin)
    i.iap_jump_to_user_app                   0x0800209c   Section        0  my_iap.o(i.iap_jump_to_user_app)
    i.iap_main_entry                         0x080020f4   Section        0  my_iap.o(i.iap_main_entry)
    i.iap_re_write_user_code                 0x080021a4   Section        0  my_flash.o(i.iap_re_write_user_code)
    i.iap_thread_init                        0x08002224   Section        0  my_iap.o(i.iap_thread_init)
    i.led_display_entry                      0x0800229c   Section        0  my_iap.o(i.led_display_entry)
    i.main                                   0x080022aa   Section        0  main.o(i.main)
    i.main_thread_entry                      0x080022e6   Section        0  components.o(i.main_thread_entry)
    i.my_calculate_page_num                  0x080022f4   Section        0  my_flash.o(i.my_calculate_page_num)
    i.my_erase_pages                         0x08002328   Section        0  my_flash.o(i.my_erase_pages)
    i.my_erase_write_to_flash                0x08002370   Section        0  my_flash.o(i.my_erase_write_to_flash)
    i.my_read_from_flash                     0x080023c8   Section        0  my_flash.o(i.my_read_from_flash)
    i.my_write_to_flash                      0x080023e4   Section        0  my_flash.o(i.my_write_to_flash)
    i.plug_holes                             0x08002434   Section        0  mem.o(i.plug_holes)
    plug_holes                               0x08002435   Thumb Code   108  mem.o(i.plug_holes)
    i.print_number                           0x080024ac   Section        0  kservice.o(i.print_number)
    print_number                             0x080024ad   Thumb Code   400  kservice.o(i.print_number)
    i.rt_application_init                    0x08002644   Section        0  components.o(i.rt_application_init)
    i.rt_completion_done                     0x08002674   Section        0  completion.o(i.rt_completion_done)
    i.rt_completion_init                     0x080026bc   Section        0  completion.o(i.rt_completion_init)
    i.rt_completion_wait                     0x080026da   Section        0  completion.o(i.rt_completion_wait)
    i.rt_components_board_init               0x08002758   Section        0  components.o(i.rt_components_board_init)
    i.rt_components_init                     0x08002774   Section        0  components.o(i.rt_components_init)
    i.rt_device_find                         0x08002790   Section        0  device.o(i.rt_device_find)
    i.rt_device_open                         0x080027e2   Section        0  device.o(i.rt_device_open)
    i.rt_device_pin_register                 0x08002854   Section        0  pin.o(i.rt_device_pin_register)
    i.rt_device_read                         0x0800289c   Section        0  device.o(i.rt_device_read)
    i.rt_device_register                     0x080028da   Section        0  device.o(i.rt_device_register)
    i.rt_device_set_rx_indicate              0x0800290e   Section        0  device.o(i.rt_device_set_rx_indicate)
    i.rt_enter_critical                      0x08002918   Section        0  scheduler.o(i.rt_enter_critical)
    i.rt_exit_critical                       0x08002938   Section        0  scheduler.o(i.rt_exit_critical)
    i.rt_free                                0x0800297c   Section        0  mem.o(i.rt_free)
    i.rt_hw_board_init                       0x080029f4   Section        0  drv_common.o(i.rt_hw_board_init)
    i.rt_hw_hard_fault_exception             0x08002a30   Section        0  cpuport.o(i.rt_hw_hard_fault_exception)
    i.rt_hw_pin_init                         0x08002a54   Section        0  drv_gpio.o(i.rt_hw_pin_init)
    i.rt_hw_serial_isr                       0x08002b28   Section        0  serial.o(i.rt_hw_serial_isr)
    i.rt_hw_serial_register                  0x08002bf8   Section        0  serial.o(i.rt_hw_serial_register)
    i.rt_hw_stack_init                       0x08002c54   Section        0  cpuport.o(i.rt_hw_stack_init)
    i.rt_hw_systick_init                     0x08002ca0   Section        0  drv_common.o(i.rt_hw_systick_init)
    i.rt_hw_usart_init                       0x08002cc8   Section        0  drv_usart.o(i.rt_hw_usart_init)
    i.rt_interrupt_enter                     0x08002d84   Section        0  irq.o(i.rt_interrupt_enter)
    i.rt_interrupt_get_nest                  0x08002da4   Section        0  irq.o(i.rt_interrupt_get_nest)
    i.rt_interrupt_leave                     0x08002dc0   Section        0  irq.o(i.rt_interrupt_leave)
    i.rt_ipc_list_resume                     0x08002de0   Section        0  ipc.o(i.rt_ipc_list_resume)
    rt_ipc_list_resume                       0x08002de1   Thumb Code    20  ipc.o(i.rt_ipc_list_resume)
    i.rt_ipc_list_suspend                    0x08002df4   Section        0  ipc.o(i.rt_ipc_list_suspend)
    rt_ipc_list_suspend                      0x08002df5   Thumb Code   108  ipc.o(i.rt_ipc_list_suspend)
    i.rt_ipc_object_init                     0x08002e60   Section        0  ipc.o(i.rt_ipc_object_init)
    rt_ipc_object_init                       0x08002e61   Thumb Code    16  ipc.o(i.rt_ipc_object_init)
    i.rt_list_init                           0x08002e70   Section        0  scheduler.o(i.rt_list_init)
    rt_list_init                             0x08002e71   Thumb Code     6  scheduler.o(i.rt_list_init)
    i.rt_list_init                           0x08002e76   Section        0  timer.o(i.rt_list_init)
    rt_list_init                             0x08002e77   Thumb Code     6  timer.o(i.rt_list_init)
    i.rt_list_insert_after                   0x08002e7c   Section        0  object.o(i.rt_list_insert_after)
    rt_list_insert_after                     0x08002e7d   Thumb Code    14  object.o(i.rt_list_insert_after)
    i.rt_list_insert_after                   0x08002e8a   Section        0  thread.o(i.rt_list_insert_after)
    rt_list_insert_after                     0x08002e8b   Thumb Code    14  thread.o(i.rt_list_insert_after)
    i.rt_list_insert_after                   0x08002e98   Section        0  timer.o(i.rt_list_insert_after)
    rt_list_insert_after                     0x08002e99   Thumb Code    14  timer.o(i.rt_list_insert_after)
    i.rt_list_insert_before                  0x08002ea6   Section        0  ipc.o(i.rt_list_insert_before)
    rt_list_insert_before                    0x08002ea7   Thumb Code    14  ipc.o(i.rt_list_insert_before)
    i.rt_list_isempty                        0x08002eb4   Section        0  ipc.o(i.rt_list_isempty)
    rt_list_isempty                          0x08002eb5   Thumb Code    16  ipc.o(i.rt_list_isempty)
    i.rt_list_isempty                        0x08002ec4   Section        0  timer.o(i.rt_list_isempty)
    rt_list_isempty                          0x08002ec5   Thumb Code    16  timer.o(i.rt_list_isempty)
    i.rt_list_remove                         0x08002ed4   Section        0  object.o(i.rt_list_remove)
    rt_list_remove                           0x08002ed5   Thumb Code    18  object.o(i.rt_list_remove)
    i.rt_list_remove                         0x08002ee6   Section        0  thread.o(i.rt_list_remove)
    rt_list_remove                           0x08002ee7   Thumb Code    18  thread.o(i.rt_list_remove)
    i.rt_malloc                              0x08002ef8   Section        0  mem.o(i.rt_malloc)
    i.rt_memset                              0x08003064   Section        0  kservice.o(i.rt_memset)
    i.rt_object_allocate                     0x080030ac   Section        0  object.o(i.rt_object_allocate)
    i.rt_object_delete                       0x08003100   Section        0  object.o(i.rt_object_delete)
    i.rt_object_detach                       0x08003124   Section        0  object.o(i.rt_object_detach)
    i.rt_object_get_information              0x08003144   Section        0  object.o(i.rt_object_get_information)
    i.rt_object_init                         0x0800316c   Section        0  object.o(i.rt_object_init)
    i.rt_object_is_systemobject              0x080031c2   Section        0  object.o(i.rt_object_is_systemobject)
    i.rt_pin_mode                            0x080031d4   Section        0  pin.o(i.rt_pin_mode)
    i.rt_pin_write                           0x080031f0   Section        0  pin.o(i.rt_pin_write)
    i.rt_schedule                            0x0800320c   Section        0  scheduler.o(i.rt_schedule)
    i.rt_schedule_insert_thread              0x08003328   Section        0  scheduler.o(i.rt_schedule_insert_thread)
    i.rt_schedule_remove_thread              0x08003398   Section        0  scheduler.o(i.rt_schedule_remove_thread)
    i.rt_sem_init                            0x080033ec   Section        0  ipc.o(i.rt_sem_init)
    i.rt_sem_release                         0x08003412   Section        0  ipc.o(i.rt_sem_release)
    i.rt_sem_take                            0x0800344c   Section        0  ipc.o(i.rt_sem_take)
    i.rt_serial_close                        0x080034c0   Section        0  serial.o(i.rt_serial_close)
    rt_serial_close                          0x080034c1   Thumb Code   108  serial.o(i.rt_serial_close)
    i.rt_serial_control                      0x0800352c   Section        0  serial.o(i.rt_serial_control)
    rt_serial_control                        0x0800352d   Thumb Code   130  serial.o(i.rt_serial_control)
    i.rt_serial_init                         0x080035ae   Section        0  serial.o(i.rt_serial_init)
    rt_serial_init                           0x080035af   Thumb Code    38  serial.o(i.rt_serial_init)
    i.rt_serial_open                         0x080035d4   Section        0  serial.o(i.rt_serial_open)
    rt_serial_open                           0x080035d5   Thumb Code   300  serial.o(i.rt_serial_open)
    i.rt_serial_read                         0x08003700   Section        0  serial.o(i.rt_serial_read)
    rt_serial_read                           0x08003701   Thumb Code    98  serial.o(i.rt_serial_read)
    i.rt_serial_write                        0x08003762   Section        0  serial.o(i.rt_serial_write)
    rt_serial_write                          0x08003763   Thumb Code   154  serial.o(i.rt_serial_write)
    i.rt_set_errno                           0x080037fc   Section        0  kservice.o(i.rt_set_errno)
    i.rt_show_version                        0x08003824   Section        0  kservice.o(i.rt_show_version)
    i.rt_sprintf                             0x08003826   Section        0  kservice.o(i.rt_sprintf)
    i.rt_strlen                              0x08003848   Section        0  kservice.o(i.rt_strlen)
    i.rt_strncmp                             0x0800385a   Section        0  kservice.o(i.rt_strncmp)
    i.rt_strncpy                             0x08003882   Section        0  kservice.o(i.rt_strncpy)
    i.rt_system_heap_init                    0x080038b8   Section        0  mem.o(i.rt_system_heap_init)
    i.rt_system_scheduler_init               0x08003968   Section        0  scheduler.o(i.rt_system_scheduler_init)
    i.rt_system_scheduler_start              0x080039a4   Section        0  scheduler.o(i.rt_system_scheduler_start)
    i.rt_system_timer_init                   0x080039cc   Section        0  timer.o(i.rt_system_timer_init)
    i.rt_system_timer_thread_init            0x080039e8   Section        0  timer.o(i.rt_system_timer_thread_init)
    i.rt_thread_create                       0x080039ea   Section        0  thread.o(i.rt_thread_create)
    i.rt_thread_exit                         0x08003a3c   Section        0  thread.o(i.rt_thread_exit)
    i.rt_thread_idle_entry                   0x08003a90   Section        0  idle.o(i.rt_thread_idle_entry)
    rt_thread_idle_entry                     0x08003a91   Thumb Code     8  idle.o(i.rt_thread_idle_entry)
    i.rt_thread_idle_excute                  0x08003a98   Section        0  idle.o(i.rt_thread_idle_excute)
    i.rt_thread_idle_init                    0x08003b24   Section        0  idle.o(i.rt_thread_idle_init)
    i.rt_thread_init                         0x08003b84   Section        0  thread.o(i.rt_thread_init)
    i.rt_thread_mdelay                       0x08003bb8   Section        0  thread.o(i.rt_thread_mdelay)
    i.rt_thread_resume                       0x08003bcc   Section        0  thread.o(i.rt_thread_resume)
    i.rt_thread_self                         0x08003c08   Section        0  thread.o(i.rt_thread_self)
    i.rt_thread_sleep                        0x08003c14   Section        0  thread.o(i.rt_thread_sleep)
    i.rt_thread_startup                      0x08003c54   Section        0  thread.o(i.rt_thread_startup)
    i.rt_thread_suspend                      0x08003c80   Section        0  thread.o(i.rt_thread_suspend)
    i.rt_thread_timeout                      0x08003cc8   Section        0  thread.o(i.rt_thread_timeout)
    i.rt_thread_yield                        0x08003ce8   Section        0  thread.o(i.rt_thread_yield)
    i.rt_tick_from_millisecond               0x08003cf2   Section        0  clock.o(i.rt_tick_from_millisecond)
    i.rt_tick_get                            0x08003d2c   Section        0  clock.o(i.rt_tick_get)
    i.rt_tick_increase                       0x08003d38   Section        0  clock.o(i.rt_tick_increase)
    i.rt_timer_check                         0x08003d74   Section        0  timer.o(i.rt_timer_check)
    i.rt_timer_control                       0x08003df0   Section        0  timer.o(i.rt_timer_control)
    i.rt_timer_detach                        0x08003e28   Section        0  timer.o(i.rt_timer_detach)
    i.rt_timer_init                          0x08003e48   Section        0  timer.o(i.rt_timer_init)
    i.rt_timer_start                         0x08003e78   Section        0  timer.o(i.rt_timer_start)
    i.rt_timer_stop                          0x08003f70   Section        0  timer.o(i.rt_timer_stop)
    i.rt_vsnprintf                           0x08003fa0   Section        0  kservice.o(i.rt_vsnprintf)
    i.rt_vsprintf                            0x080042d0   Section        0  kservice.o(i.rt_vsprintf)
    i.rti_board_end                          0x080042e6   Section        0  components.o(i.rti_board_end)
    rti_board_end                            0x080042e7   Thumb Code     4  components.o(i.rti_board_end)
    i.rti_board_start                        0x080042ea   Section        0  components.o(i.rti_board_start)
    rti_board_start                          0x080042eb   Thumb Code     4  components.o(i.rti_board_start)
    i.rti_end                                0x080042ee   Section        0  components.o(i.rti_end)
    rti_end                                  0x080042ef   Thumb Code     4  components.o(i.rti_end)
    i.rti_start                              0x080042f2   Section        0  components.o(i.rti_start)
    rti_start                                0x080042f3   Thumb Code     4  components.o(i.rti_start)
    i.rtthread_startup                       0x080042f6   Section        0  components.o(i.rtthread_startup)
    i.skip_atoi                              0x08004320   Section        0  kservice.o(i.skip_atoi)
    skip_atoi                                0x08004321   Thumb Code    38  kservice.o(i.skip_atoi)
    i.stm32_configure                        0x08004346   Section        0  drv_usart.o(i.stm32_configure)
    stm32_configure                          0x08004347   Thumb Code   172  drv_usart.o(i.stm32_configure)
    i.stm32_control                          0x080043f4   Section        0  drv_usart.o(i.stm32_control)
    stm32_control                            0x080043f5   Thumb Code   144  drv_usart.o(i.stm32_control)
    i.stm32_dma_transmit                     0x08004488   Section        0  drv_usart.o(i.stm32_dma_transmit)
    stm32_dma_transmit                       0x08004489   Thumb Code    52  drv_usart.o(i.stm32_dma_transmit)
    i.stm32_getc                             0x080044bc   Section        0  drv_usart.o(i.stm32_getc)
    stm32_getc                               0x080044bd   Thumb Code    28  drv_usart.o(i.stm32_getc)
    i.stm32_pin_attach_irq                   0x080044d8   Section        0  drv_gpio.o(i.stm32_pin_attach_irq)
    stm32_pin_attach_irq                     0x080044d9   Thumb Code   216  drv_gpio.o(i.stm32_pin_attach_irq)
    i.stm32_pin_dettach_irq                  0x080045b4   Section        0  drv_gpio.o(i.stm32_pin_dettach_irq)
    stm32_pin_dettach_irq                    0x080045b5   Thumb Code   134  drv_gpio.o(i.stm32_pin_dettach_irq)
    i.stm32_pin_irq_enable                   0x08004640   Section        0  drv_gpio.o(i.stm32_pin_irq_enable)
    stm32_pin_irq_enable                     0x08004641   Thumb Code   372  drv_gpio.o(i.stm32_pin_irq_enable)
    i.stm32_pin_mode                         0x080047cc   Section        0  drv_gpio.o(i.stm32_pin_mode)
    stm32_pin_mode                           0x080047cd   Thumb Code   116  drv_gpio.o(i.stm32_pin_mode)
    i.stm32_pin_read                         0x08004840   Section        0  drv_gpio.o(i.stm32_pin_read)
    stm32_pin_read                           0x08004841   Thumb Code    42  drv_gpio.o(i.stm32_pin_read)
    i.stm32_pin_write                        0x0800486a   Section        0  drv_gpio.o(i.stm32_pin_write)
    stm32_pin_write                          0x0800486b   Thumb Code    40  drv_gpio.o(i.stm32_pin_write)
    i.stm32_putc                             0x08004892   Section        0  drv_usart.o(i.stm32_putc)
    stm32_putc                               0x08004893   Thumb Code    40  drv_usart.o(i.stm32_putc)
    i.stm32_uart_get_dma_config              0x080048bc   Section        0  drv_usart.o(i.stm32_uart_get_dma_config)
    stm32_uart_get_dma_config                0x080048bd   Thumb Code    10  drv_usart.o(i.stm32_uart_get_dma_config)
    i.uart_isr                               0x080048cc   Section        0  drv_usart.o(i.uart_isr)
    uart_isr                                 0x080048cd   Thumb Code   258  drv_usart.o(i.uart_isr)
    .constdata                               0x080049ce   Section       34  kservice.o(.constdata)
    small_digits                             0x080049ce   Data          17  kservice.o(.constdata)
    large_digits                             0x080049df   Data          17  kservice.o(.constdata)
    .constdata                               0x080049f0   Section     1432  drv_gpio.o(.constdata)
    pins                                     0x080049f0   Data        1344  drv_gpio.o(.constdata)
    pin_irq_map                              0x08004f30   Data          64  drv_gpio.o(.constdata)
    _stm32_pin_ops                           0x08004f70   Data          24  drv_gpio.o(.constdata)
    .constdata                               0x08004f88   Section       28  drv_usart.o(.constdata)
    stm32_uart_ops                           0x08004f88   Data          20  drv_usart.o(.constdata)
    .constdata                               0x08004fa4   Section       24  system_stm32f1xx.o(.constdata)
    .conststring                             0x08004fbc   Section        6  drv_usart.o(.conststring)
    .rti_fn.0                                0x08004fc4   Section        4  components.o(.rti_fn.0)
    __tagsym$$used                           0x08004fc4   Number         0  components.o(.rti_fn.0)
    .rti_fn.0.end                            0x08004fc8   Section        4  components.o(.rti_fn.0.end)
    __tagsym$$used                           0x08004fc8   Number         0  components.o(.rti_fn.0.end)
    .rti_fn.1.end                            0x08004fcc   Section        4  components.o(.rti_fn.1.end)
    __tagsym$$used                           0x08004fcc   Number         0  components.o(.rti_fn.1.end)
    .rti_fn.6.end                            0x08004fd0   Section        4  components.o(.rti_fn.6.end)
    __tagsym$$used                           0x08004fd0   Number         0  components.o(.rti_fn.6.end)
    .data                                    0x20000000   Section       28  my_iap.o(.data)
    tid                                      0x20000018   Data           4  my_iap.o(.data)
    .data                                    0x2000001c   Section       16  cpuport.o(.data)
    rt_exception_hook                        0x20000028   Data           4  cpuport.o(.data)
    .data                                    0x2000002c   Section        4  clock.o(.data)
    rt_tick                                  0x2000002c   Data           4  clock.o(.data)
    .data                                    0x20000030   Section        1  irq.o(.data)
    .data                                    0x20000034   Section        4  kservice.o(.data)
    __rt_errno                               0x20000034   Data           4  kservice.o(.data)
    .data                                    0x20000038   Section       24  mem.o(.data)
    heap_ptr                                 0x20000038   Data           4  mem.o(.data)
    heap_end                                 0x2000003c   Data           4  mem.o(.data)
    lfree                                    0x20000040   Data           4  mem.o(.data)
    mem_size_aligned                         0x20000044   Data           4  mem.o(.data)
    used_mem                                 0x20000048   Data           4  mem.o(.data)
    max_mem                                  0x2000004c   Data           4  mem.o(.data)
    .data                                    0x20000050   Section       96  object.o(.data)
    rt_object_container                      0x20000050   Data          96  object.o(.data)
    .data                                    0x200000b0   Section       24  scheduler.o(.data)
    rt_scheduler_lock_nest                   0x200000b4   Data           2  scheduler.o(.data)
    .data                                    0x200000c8   Section       12  timer.o(.data)
    rt_timer_list                            0x200000c8   Data           8  timer.o(.data)
    random_nr                                0x200000d0   Data           4  timer.o(.data)
    .data                                    0x200000d4   Section      196  drv_gpio.o(.data)
    pin_irq_hdr_tab                          0x200000d4   Data         192  drv_gpio.o(.data)
    pin_irq_enable_mask                      0x20000194   Data           4  drv_gpio.o(.data)
    .data                                    0x20000198   Section       20  drv_usart.o(.data)
    uart_config                              0x20000198   Data          20  drv_usart.o(.data)
    .data                                    0x200001ac   Section        4  system_stm32f1xx.o(.data)
    .data                                    0x200001b0   Section        9  stm32f1xx_hal.o(.data)
    .data                                    0x200001bc   Section        4  serial.o(.data)
    already_output                           0x200001bc   Data           4  serial.o(.data)
    .bss                                     0x200001c0   Section     2048  my_flash.o(.bss)
    .bss                                     0x200009c0   Section       70  my_iap.o(.bss)
    .bss                                     0x20000a08   Section      384  idle.o(.bss)
    idle                                     0x20000a08   Data         128  idle.o(.bss)
    rt_thread_stack                          0x20000a88   Data         256  idle.o(.bss)
    .bss                                     0x20000b88   Section       32  mem.o(.bss)
    heap_sem                                 0x20000b88   Data          32  mem.o(.bss)
    .bss                                     0x20000ba8   Section      256  scheduler.o(.bss)
    .bss                                     0x20000ca8   Section      156  drv_usart.o(.bss)
    uart_obj                                 0x20000ca8   Data         156  drv_usart.o(.bss)
    .bss                                     0x20000d48   Section       32  stm32f1xx_hal_flash.o(.bss)
    .bss                                     0x20000d68   Section       68  pin.o(.bss)
    _hw_pin                                  0x20000d68   Data          68  pin.o(.bss)
    .bss                                     0x20000dac   Section       96  libspace.o(.bss)
    HEAP                                     0x20000e10   Section      512  startup_stm32f103xe.o(HEAP)
    Heap_Mem                                 0x20000e10   Data         512  startup_stm32f103xe.o(HEAP)
    STACK                                    0x20001010   Section     1024  startup_stm32f103xe.o(STACK)
    Stack_Mem                                0x20001010   Data        1024  startup_stm32f103xe.o(STACK)
    __initial_sp                             0x20001410   Data           0  startup_stm32f103xe.o(STACK)

    Global Symbols

    Symbol Name                              Value     Ov Type        Size  Object(Section)

    BuildAttributes$$THM_ISAv4$P$D$K$B$S$PE$A:L22UL41UL21$X:L11$S22US41US21$IEEE1$IW$USESV6$~STKCKD$USESV7$~SHL$OSPACE$ROPI$EBA8$UX$STANDARDLIB$REQ8$PRES8$EABIv2 0x00000000   Number         0  anon$$obj.o ABSOLUTE
    __ARM_use_no_argv                        0x00000000   Number         0  main.o ABSOLUTE
    __ARM_exceptions_init                     - Undefined Weak Reference
    __alloca_initialize                       - Undefined Weak Reference
    __arm_preinit_                            - Undefined Weak Reference
    __cpp_initialize__aeabi_                  - Undefined Weak Reference
    __cxa_finalize                            - Undefined Weak Reference
    __rt_locale                               - Undefined Weak Reference
    __sigvec_lookup                           - Undefined Weak Reference
    _atexit_init                              - Undefined Weak Reference
    _call_atexit_fns                          - Undefined Weak Reference
    _clock_init                               - Undefined Weak Reference
    _fp_trap_init                             - Undefined Weak Reference
    _fp_trap_shutdown                         - Undefined Weak Reference
    _get_lc_collate                           - Undefined Weak Reference
    _get_lc_ctype                             - Undefined Weak Reference
    _get_lc_monetary                          - Undefined Weak Reference
    _get_lc_numeric                           - Undefined Weak Reference
    _get_lc_time                              - Undefined Weak Reference
    _getenv_init                              - Undefined Weak Reference
    _handle_redirection                       - Undefined Weak Reference
    _init_alloc                               - Undefined Weak Reference
    _init_user_alloc                          - Undefined Weak Reference
    _initio                                   - Undefined Weak Reference
    _rand_init                                - Undefined Weak Reference
    _signal_finish                            - Undefined Weak Reference
    _signal_init                              - Undefined Weak Reference
    _terminate_alloc                          - Undefined Weak Reference
    _terminate_user_alloc                     - Undefined Weak Reference
    _terminateio                              - Undefined Weak Reference
    __Vectors_Size                           0x00000130   Number         0  startup_stm32f103xe.o ABSOLUTE
    __Vectors                                0x08000000   Data           4  startup_stm32f103xe.o(RESET)
    __Vectors_End                            0x08000130   Data           0  startup_stm32f103xe.o(RESET)
    __main                                   0x08000131   Thumb Code     8  __main.o(!!!main)
    __scatterload                            0x08000139   Thumb Code     0  __scatter.o(!!!scatter)
    __scatterload_rt2                        0x08000139   Thumb Code    44  __scatter.o(!!!scatter)
    __scatterload_rt2_thumb_only             0x08000139   Thumb Code     0  __scatter.o(!!!scatter)
    __scatterload_null                       0x08000147   Thumb Code     0  __scatter.o(!!!scatter)
    __decompress                             0x0800016d   Thumb Code    90  __dczerorl2.o(!!dczerorl2)
    __decompress1                            0x0800016d   Thumb Code     0  __dczerorl2.o(!!dczerorl2)
    __scatterload_zeroinit                   0x080001c9   Thumb Code    28  __scatter_zi.o(!!handler_zi)
    __rt_lib_init                            0x080001e5   Thumb Code     0  libinit.o(.ARM.Collect$$libinit$$00000000)
    __rt_lib_init_alloca_1                   0x080001e7   Thumb Code     0  libinit2.o(.ARM.Collect$$libinit$$0000002E)
    __rt_lib_init_argv_1                     0x080001e7   Thumb Code     0  libinit2.o(.ARM.Collect$$libinit$$0000002C)
    __rt_lib_init_atexit_1                   0x080001e7   Thumb Code     0  libinit2.o(.ARM.Collect$$libinit$$0000001B)
    __rt_lib_init_clock_1                    0x080001e7   Thumb Code     0  libinit2.o(.ARM.Collect$$libinit$$00000021)
    __rt_lib_init_cpp_1                      0x080001e7   Thumb Code     0  libinit2.o(.ARM.Collect$$libinit$$00000032)
    __rt_lib_init_exceptions_1               0x080001e7   Thumb Code     0  libinit2.o(.ARM.Collect$$libinit$$00000030)
    __rt_lib_init_fp_1                       0x080001e7   Thumb Code     0  libinit2.o(.ARM.Collect$$libinit$$00000002)
    __rt_lib_init_fp_trap_1                  0x080001e7   Thumb Code     0  libinit2.o(.ARM.Collect$$libinit$$0000001F)
    __rt_lib_init_getenv_1                   0x080001e7   Thumb Code     0  libinit2.o(.ARM.Collect$$libinit$$00000023)
    __rt_lib_init_heap_1                     0x080001e7   Thumb Code     0  libinit2.o(.ARM.Collect$$libinit$$0000000A)
    __rt_lib_init_lc_collate_1               0x080001e7   Thumb Code     0  libinit2.o(.ARM.Collect$$libinit$$00000011)
    __rt_lib_init_lc_ctype_1                 0x080001e7   Thumb Code     0  libinit2.o(.ARM.Collect$$libinit$$00000013)
    __rt_lib_init_lc_monetary_1              0x080001e7   Thumb Code     0  libinit2.o(.ARM.Collect$$libinit$$00000015)
    __rt_lib_init_lc_numeric_1               0x080001e7   Thumb Code     0  libinit2.o(.ARM.Collect$$libinit$$00000017)
    __rt_lib_init_lc_time_1                  0x080001e7   Thumb Code     0  libinit2.o(.ARM.Collect$$libinit$$00000019)
    __rt_lib_init_preinit_1                  0x080001e7   Thumb Code     0  libinit2.o(.ARM.Collect$$libinit$$00000004)
    __rt_lib_init_rand_1                     0x080001e7   Thumb Code     0  libinit2.o(.ARM.Collect$$libinit$$0000000E)
    __rt_lib_init_return                     0x080001e7   Thumb Code     0  libinit2.o(.ARM.Collect$$libinit$$00000033)
    __rt_lib_init_signal_1                   0x080001e7   Thumb Code     0  libinit2.o(.ARM.Collect$$libinit$$0000001D)
    __rt_lib_init_stdio_1                    0x080001e7   Thumb Code     0  libinit2.o(.ARM.Collect$$libinit$$00000025)
    __rt_lib_init_user_alloc_1               0x080001e7   Thumb Code     0  libinit2.o(.ARM.Collect$$libinit$$0000000C)
    __rt_lib_shutdown                        0x080001e9   Thumb Code     0  libshutdown.o(.ARM.Collect$$libshutdown$$00000000)
    __rt_lib_shutdown_cpp_1                  0x080001eb   Thumb Code     0  libshutdown2.o(.ARM.Collect$$libshutdown$$00000002)
    __rt_lib_shutdown_fp_trap_1              0x080001eb   Thumb Code     0  libshutdown2.o(.ARM.Collect$$libshutdown$$00000007)
    __rt_lib_shutdown_heap_1                 0x080001eb   Thumb Code     0  libshutdown2.o(.ARM.Collect$$libshutdown$$0000000F)
    __rt_lib_shutdown_return                 0x080001eb   Thumb Code     0  libshutdown2.o(.ARM.Collect$$libshutdown$$00000010)
    __rt_lib_shutdown_signal_1               0x080001eb   Thumb Code     0  libshutdown2.o(.ARM.Collect$$libshutdown$$0000000A)
    __rt_lib_shutdown_stdio_1                0x080001eb   Thumb Code     0  libshutdown2.o(.ARM.Collect$$libshutdown$$00000004)
    __rt_lib_shutdown_user_alloc_1           0x080001eb   Thumb Code     0  libshutdown2.o(.ARM.Collect$$libshutdown$$0000000C)
    __rt_entry                               0x080001ed   Thumb Code     0  __rtentry.o(.ARM.Collect$$rtentry$$00000000)
    __rt_entry_presh_1                       0x080001ed   Thumb Code     0  __rtentry2.o(.ARM.Collect$$rtentry$$00000002)
    __rt_entry_sh                            0x080001ed   Thumb Code     0  __rtentry4.o(.ARM.Collect$$rtentry$$00000004)
    __rt_entry_li                            0x080001f3   Thumb Code     0  __rtentry2.o(.ARM.Collect$$rtentry$$0000000A)
    __rt_entry_postsh_1                      0x080001f3   Thumb Code     0  __rtentry2.o(.ARM.Collect$$rtentry$$00000009)
    __rt_entry_main                          0x080001f7   Thumb Code     0  __rtentry2.o(.ARM.Collect$$rtentry$$0000000D)
    __rt_entry_postli_1                      0x080001f7   Thumb Code     0  __rtentry2.o(.ARM.Collect$$rtentry$$0000000C)
    __rt_exit                                0x080001ff   Thumb Code     0  rtexit.o(.ARM.Collect$$rtexit$$00000000)
    __rt_exit_ls                             0x08000201   Thumb Code     0  rtexit2.o(.ARM.Collect$$rtexit$$00000003)
    __rt_exit_prels_1                        0x08000201   Thumb Code     0  rtexit2.o(.ARM.Collect$$rtexit$$00000002)
    __rt_exit_exit                           0x08000205   Thumb Code     0  rtexit2.o(.ARM.Collect$$rtexit$$00000004)
    __rt_ffs                                 0x0800020d   Thumb Code    16  cpuport.o(.emb_text)
    rt_hw_interrupt_disable                  0x0800021d   Thumb Code     8  context_rvds.o(.text)
    rt_hw_interrupt_enable                   0x08000225   Thumb Code     6  context_rvds.o(.text)
    rt_hw_context_switch                     0x0800022b   Thumb Code    32  context_rvds.o(.text)
    rt_hw_context_switch_interrupt           0x0800022b   Thumb Code     0  context_rvds.o(.text)
    PendSV_Handler                           0x0800024b   Thumb Code    60  context_rvds.o(.text)
    rt_hw_context_switch_to                  0x08000287   Thumb Code    58  context_rvds.o(.text)
    rt_hw_interrupt_thread_switch            0x080002c1   Thumb Code     2  context_rvds.o(.text)
    HardFault_Handler                        0x080002c3   Thumb Code    52  context_rvds.o(.text)
    Reset_Handler                            0x08000311   Thumb Code     8  startup_stm32f103xe.o(.text)
    NMI_Handler                              0x08000319   Thumb Code     2  startup_stm32f103xe.o(.text)
    MemManage_Handler                        0x0800031d   Thumb Code     2  startup_stm32f103xe.o(.text)
    BusFault_Handler                         0x0800031f   Thumb Code     2  startup_stm32f103xe.o(.text)
    UsageFault_Handler                       0x08000321   Thumb Code     2  startup_stm32f103xe.o(.text)
    SVC_Handler                              0x08000323   Thumb Code     2  startup_stm32f103xe.o(.text)
    DebugMon_Handler                         0x08000325   Thumb Code     2  startup_stm32f103xe.o(.text)
    ADC1_2_IRQHandler                        0x0800032b   Thumb Code     0  startup_stm32f103xe.o(.text)
    ADC3_IRQHandler                          0x0800032b   Thumb Code     0  startup_stm32f103xe.o(.text)
    CAN1_RX1_IRQHandler                      0x0800032b   Thumb Code     0  startup_stm32f103xe.o(.text)
    CAN1_SCE_IRQHandler                      0x0800032b   Thumb Code     0  startup_stm32f103xe.o(.text)
    DMA1_Channel1_IRQHandler                 0x0800032b   Thumb Code     0  startup_stm32f103xe.o(.text)
    DMA1_Channel2_IRQHandler                 0x0800032b   Thumb Code     0  startup_stm32f103xe.o(.text)
    DMA1_Channel3_IRQHandler                 0x0800032b   Thumb Code     0  startup_stm32f103xe.o(.text)
    DMA1_Channel4_IRQHandler                 0x0800032b   Thumb Code     0  startup_stm32f103xe.o(.text)
    DMA1_Channel5_IRQHandler                 0x0800032b   Thumb Code     0  startup_stm32f103xe.o(.text)
    DMA1_Channel6_IRQHandler                 0x0800032b   Thumb Code     0  startup_stm32f103xe.o(.text)
    DMA1_Channel7_IRQHandler                 0x0800032b   Thumb Code     0  startup_stm32f103xe.o(.text)
    DMA2_Channel1_IRQHandler                 0x0800032b   Thumb Code     0  startup_stm32f103xe.o(.text)
    DMA2_Channel2_IRQHandler                 0x0800032b   Thumb Code     0  startup_stm32f103xe.o(.text)
    DMA2_Channel3_IRQHandler                 0x0800032b   Thumb Code     0  startup_stm32f103xe.o(.text)
    DMA2_Channel4_5_IRQHandler               0x0800032b   Thumb Code     0  startup_stm32f103xe.o(.text)
    FLASH_IRQHandler                         0x0800032b   Thumb Code     0  startup_stm32f103xe.o(.text)
    FSMC_IRQHandler                          0x0800032b   Thumb Code     0  startup_stm32f103xe.o(.text)
    I2C1_ER_IRQHandler                       0x0800032b   Thumb Code     0  startup_stm32f103xe.o(.text)
    I2C1_EV_IRQHandler                       0x0800032b   Thumb Code     0  startup_stm32f103xe.o(.text)
    I2C2_ER_IRQHandler                       0x0800032b   Thumb Code     0  startup_stm32f103xe.o(.text)
    I2C2_EV_IRQHandler                       0x0800032b   Thumb Code     0  startup_stm32f103xe.o(.text)
    PVD_IRQHandler                           0x0800032b   Thumb Code     0  startup_stm32f103xe.o(.text)
    RCC_IRQHandler                           0x0800032b   Thumb Code     0  startup_stm32f103xe.o(.text)
    RTC_Alarm_IRQHandler                     0x0800032b   Thumb Code     0  startup_stm32f103xe.o(.text)
    RTC_IRQHandler                           0x0800032b   Thumb Code     0  startup_stm32f103xe.o(.text)
    SDIO_IRQHandler                          0x0800032b   Thumb Code     0  startup_stm32f103xe.o(.text)
    SPI1_IRQHandler                          0x0800032b   Thumb Code     0  startup_stm32f103xe.o(.text)
    SPI2_IRQHandler                          0x0800032b   Thumb Code     0  startup_stm32f103xe.o(.text)
    SPI3_IRQHandler                          0x0800032b   Thumb Code     0  startup_stm32f103xe.o(.text)
    TAMPER_IRQHandler                        0x0800032b   Thumb Code     0  startup_stm32f103xe.o(.text)
    TIM1_BRK_IRQHandler                      0x0800032b   Thumb Code     0  startup_stm32f103xe.o(.text)
    TIM1_CC_IRQHandler                       0x0800032b   Thumb Code     0  startup_stm32f103xe.o(.text)
    TIM1_TRG_COM_IRQHandler                  0x0800032b   Thumb Code     0  startup_stm32f103xe.o(.text)
    TIM1_UP_IRQHandler                       0x0800032b   Thumb Code     0  startup_stm32f103xe.o(.text)
    TIM2_IRQHandler                          0x0800032b   Thumb Code     0  startup_stm32f103xe.o(.text)
    TIM3_IRQHandler                          0x0800032b   Thumb Code     0  startup_stm32f103xe.o(.text)
    TIM4_IRQHandler                          0x0800032b   Thumb Code     0  startup_stm32f103xe.o(.text)
    TIM5_IRQHandler                          0x0800032b   Thumb Code     0  startup_stm32f103xe.o(.text)
    TIM6_IRQHandler                          0x0800032b   Thumb Code     0  startup_stm32f103xe.o(.text)
    TIM7_IRQHandler                          0x0800032b   Thumb Code     0  startup_stm32f103xe.o(.text)
    TIM8_BRK_IRQHandler                      0x0800032b   Thumb Code     0  startup_stm32f103xe.o(.text)
    TIM8_CC_IRQHandler                       0x0800032b   Thumb Code     0  startup_stm32f103xe.o(.text)
    TIM8_TRG_COM_IRQHandler                  0x0800032b   Thumb Code     0  startup_stm32f103xe.o(.text)
    TIM8_UP_IRQHandler                       0x0800032b   Thumb Code     0  startup_stm32f103xe.o(.text)
    UART4_IRQHandler                         0x0800032b   Thumb Code     0  startup_stm32f103xe.o(.text)
    UART5_IRQHandler                         0x0800032b   Thumb Code     0  startup_stm32f103xe.o(.text)
    USART2_IRQHandler                        0x0800032b   Thumb Code     0  startup_stm32f103xe.o(.text)
    USART3_IRQHandler                        0x0800032b   Thumb Code     0  startup_stm32f103xe.o(.text)
    USBWakeUp_IRQHandler                     0x0800032b   Thumb Code     0  startup_stm32f103xe.o(.text)
    USB_HP_CAN1_TX_IRQHandler                0x0800032b   Thumb Code     0  startup_stm32f103xe.o(.text)
    USB_LP_CAN1_RX0_IRQHandler               0x0800032b   Thumb Code     0  startup_stm32f103xe.o(.text)
    WWDG_IRQHandler                          0x0800032b   Thumb Code     0  startup_stm32f103xe.o(.text)
    __user_initial_stackheap                 0x0800032d   Thumb Code     0  startup_stm32f103xe.o(.text)
    __aeabi_llsr                             0x08000351   Thumb Code     0  llushr.o(.text)
    _ll_ushift_r                             0x08000351   Thumb Code    38  llushr.o(.text)
    __aeabi_memclr4                          0x08000377   Thumb Code     0  rt_memclr_w.o(.text)
    __aeabi_memclr8                          0x08000377   Thumb Code     0  rt_memclr_w.o(.text)
    __rt_memclr_w                            0x08000377   Thumb Code    78  rt_memclr_w.o(.text)
    _memset_w                                0x0800037b   Thumb Code     0  rt_memclr_w.o(.text)
    __use_two_region_memory                  0x080003c5   Thumb Code     2  heapauxi.o(.text)
    __rt_heap_escrow$2region                 0x080003c7   Thumb Code     2  heapauxi.o(.text)
    __rt_heap_expand$2region                 0x080003c9   Thumb Code     2  heapauxi.o(.text)
    __user_setup_stackheap                   0x080003cb   Thumb Code    74  sys_stackheap_outer.o(.text)
    exit                                     0x08000415   Thumb Code    18  exit.o(.text)
    __user_libspace                          0x08000429   Thumb Code     8  libspace.o(.text)
    __user_perproc_libspace                  0x08000429   Thumb Code     0  libspace.o(.text)
    __user_perthread_libspace                0x08000429   Thumb Code     0  libspace.o(.text)
    _sys_exit                                0x08000431   Thumb Code     8  sys_exit.o(.text)
    __I$use$semihosting                      0x0800043d   Thumb Code     0  use_no_semi.o(.text)
    __use_no_semihosting_swi                 0x0800043d   Thumb Code     2  use_no_semi.o(.text)
    __semihosting_library_function           0x0800043f   Thumb Code     0  indicate_semi.o(.text)
    main                                     0x0800043f   Thumb Code    10  components.o(i.$Sub$$main)
    EXTI0_IRQHandler                         0x08000475   Thumb Code    18  drv_gpio.o(i.EXTI0_IRQHandler)
    EXTI15_10_IRQHandler                     0x08000487   Thumb Code    60  drv_gpio.o(i.EXTI15_10_IRQHandler)
    EXTI1_IRQHandler                         0x080004c3   Thumb Code    18  drv_gpio.o(i.EXTI1_IRQHandler)
    EXTI2_IRQHandler                         0x080004d5   Thumb Code    18  drv_gpio.o(i.EXTI2_IRQHandler)
    EXTI3_IRQHandler                         0x080004e7   Thumb Code    18  drv_gpio.o(i.EXTI3_IRQHandler)
    EXTI4_IRQHandler                         0x080004f9   Thumb Code    18  drv_gpio.o(i.EXTI4_IRQHandler)
    EXTI9_5_IRQHandler                       0x0800050b   Thumb Code    46  drv_gpio.o(i.EXTI9_5_IRQHandler)
    FLASH_PageErase                          0x08000561   Thumb Code    32  stm32f1xx_hal_flash_ex.o(i.FLASH_PageErase)
    FLASH_WaitForLastOperation               0x0800062d   Thumb Code   106  stm32f1xx_hal_flash.o(i.FLASH_WaitForLastOperation)
    HAL_DMA_Start_IT                         0x0800069d   Thumb Code   156  stm32f1xx_hal_dma.o(i.HAL_DMA_Start_IT)
    HAL_FLASHEx_Erase                        0x08000739   Thumb Code   168  stm32f1xx_hal_flash_ex.o(i.HAL_FLASHEx_Erase)
    HAL_FLASH_Lock                           0x080007e9   Thumb Code    16  stm32f1xx_hal_flash.o(i.HAL_FLASH_Lock)
    HAL_FLASH_Program                        0x080007fd   Thumb Code   168  stm32f1xx_hal_flash.o(i.HAL_FLASH_Program)
    HAL_FLASH_Unlock                         0x080008ad   Thumb Code    36  stm32f1xx_hal_flash.o(i.HAL_FLASH_Unlock)
    HAL_GPIO_DeInit                          0x080008dd   Thumb Code   306  stm32f1xx_hal_gpio.o(i.HAL_GPIO_DeInit)
    HAL_GPIO_EXTI_Callback                   0x08000a31   Thumb Code    54  drv_gpio.o(i.HAL_GPIO_EXTI_Callback)
    HAL_GPIO_EXTI_IRQHandler                 0x08000a6d   Thumb Code    24  stm32f1xx_hal_gpio.o(i.HAL_GPIO_EXTI_IRQHandler)
    HAL_GPIO_Init                            0x08000a89   Thumb Code   792  stm32f1xx_hal_gpio.o(i.HAL_GPIO_Init)
    HAL_GPIO_ReadPin                         0x08000dc9   Thumb Code    16  stm32f1xx_hal_gpio.o(i.HAL_GPIO_ReadPin)
    HAL_GPIO_WritePin                        0x08000dd9   Thumb Code    12  stm32f1xx_hal_gpio.o(i.HAL_GPIO_WritePin)
    HAL_GetTick                              0x08000de5   Thumb Code    18  drv_common.o(i.HAL_GetTick)
    HAL_IncTick                              0x08000df9   Thumb Code    16  stm32f1xx_hal.o(i.HAL_IncTick)
    HAL_Init                                 0x08000e11   Thumb Code    34  stm32f1xx_hal.o(i.HAL_Init)
    HAL_InitTick                             0x08000e39   Thumb Code     6  drv_common.o(i.HAL_InitTick)
    HAL_MspInit                              0x08000e41   Thumb Code    76  stm32f1xx_hal_msp.o(i.HAL_MspInit)
    HAL_NVIC_DisableIRQ                      0x08000e95   Thumb Code    62  stm32f1xx_hal_cortex.o(i.HAL_NVIC_DisableIRQ)
    HAL_NVIC_EnableIRQ                       0x08000ed9   Thumb Code    32  stm32f1xx_hal_cortex.o(i.HAL_NVIC_EnableIRQ)
    HAL_NVIC_SetPriority                     0x08000ef9   Thumb Code   124  stm32f1xx_hal_cortex.o(i.HAL_NVIC_SetPriority)
    HAL_NVIC_SetPriorityGrouping             0x08000f75   Thumb Code    32  stm32f1xx_hal_cortex.o(i.HAL_NVIC_SetPriorityGrouping)
    HAL_RCC_ClockConfig                      0x08000f9d   Thumb Code   376  stm32f1xx_hal_rcc.o(i.HAL_RCC_ClockConfig)
    HAL_RCC_GetHCLKFreq                      0x08001129   Thumb Code     6  stm32f1xx_hal_rcc.o(i.HAL_RCC_GetHCLKFreq)
    HAL_RCC_GetPCLK1Freq                     0x08001135   Thumb Code    22  stm32f1xx_hal_rcc.o(i.HAL_RCC_GetPCLK1Freq)
    HAL_RCC_GetPCLK2Freq                     0x08001155   Thumb Code    22  stm32f1xx_hal_rcc.o(i.HAL_RCC_GetPCLK2Freq)
    HAL_RCC_GetSysClockFreq                  0x08001175   Thumb Code   116  stm32f1xx_hal_rcc.o(i.HAL_RCC_GetSysClockFreq)
    HAL_RCC_OscConfig                        0x08001209   Thumb Code  1114  stm32f1xx_hal_rcc.o(i.HAL_RCC_OscConfig)
    HAL_SYSTICK_CLKSourceConfig              0x0800166d   Thumb Code    40  stm32f1xx_hal_cortex.o(i.HAL_SYSTICK_CLKSourceConfig)
    HAL_SYSTICK_Config                       0x08001695   Thumb Code    52  stm32f1xx_hal_cortex.o(i.HAL_SYSTICK_Config)
    HAL_UART_ErrorCallback                   0x080016c9   Thumb Code     2  stm32f1xx_hal_uart.o(i.HAL_UART_ErrorCallback)
    HAL_UART_Init                            0x080016cb   Thumb Code   114  stm32f1xx_hal_uart.o(i.HAL_UART_Init)
    HAL_UART_MspInit                         0x0800173d   Thumb Code   122  stm32f1xx_hal_msp.o(i.HAL_UART_MspInit)
    HAL_UART_Transmit_DMA                    0x080017c5   Thumb Code   142  stm32f1xx_hal_uart.o(i.HAL_UART_Transmit_DMA)
    HAL_UART_TxCpltCallback                  0x08001861   Thumb Code     2  stm32f1xx_hal_uart.o(i.HAL_UART_TxCpltCallback)
    HAL_UART_TxHalfCpltCallback              0x08001863   Thumb Code     2  stm32f1xx_hal_uart.o(i.HAL_UART_TxHalfCpltCallback)
    Iap_Map_Init                             0x08001865   Thumb Code    44  my_iap.o(i.Iap_Map_Init)
    LedRun                                   0x080018a1   Thumb Code   280  my_iap.o(i.LedRun)
    MX_GPIO_Init                             0x080019c5   Thumb Code    80  my_iap.o(i.MX_GPIO_Init)
    SysTick_Handler                          0x08001a45   Thumb Code    20  drv_common.o(i.SysTick_Handler)
    SystemClock_Config                       0x08001a59   Thumb Code   110  board.o(i.SystemClock_Config)
    SystemInit                               0x08001ad9   Thumb Code    70  system_stm32f1xx.o(i.SystemInit)
    USART1_IRQHandler                        0x08001d99   Thumb Code    18  drv_usart.o(i.USART1_IRQHandler)
    _Error_Handler                           0x08001db1   Thumb Code     4  drv_common.o(i._Error_Handler)
    iap_jump_to_user_app                     0x0800209d   Thumb Code    70  my_iap.o(i.iap_jump_to_user_app)
    iap_main_entry                           0x080020f5   Thumb Code   152  my_iap.o(i.iap_main_entry)
    iap_re_write_user_code                   0x080021a5   Thumb Code   114  my_flash.o(i.iap_re_write_user_code)
    iap_thread_init                          0x08002225   Thumb Code    92  my_iap.o(i.iap_thread_init)
    led_display_entry                        0x0800229d   Thumb Code    14  my_iap.o(i.led_display_entry)
    $Super$$main                             0x080022ab   Thumb Code    60  main.o(i.main)
    main_thread_entry                        0x080022e7   Thumb Code    14  components.o(i.main_thread_entry)
    my_calculate_page_num                    0x080022f5   Thumb Code    52  my_flash.o(i.my_calculate_page_num)
    my_erase_pages                           0x08002329   Thumb Code    68  my_flash.o(i.my_erase_pages)
    my_erase_write_to_flash                  0x08002371   Thumb Code    84  my_flash.o(i.my_erase_write_to_flash)
    my_read_from_flash                       0x080023c9   Thumb Code    26  my_flash.o(i.my_read_from_flash)
    my_write_to_flash                        0x080023e5   Thumb Code    74  my_flash.o(i.my_write_to_flash)
    rt_application_init                      0x08002645   Thumb Code    34  components.o(i.rt_application_init)
    rt_completion_done                       0x08002675   Thumb Code    72  completion.o(i.rt_completion_done)
    rt_completion_init                       0x080026bd   Thumb Code    30  completion.o(i.rt_completion_init)
    rt_completion_wait                       0x080026db   Thumb Code   126  completion.o(i.rt_completion_wait)
    rt_components_board_init                 0x08002759   Thumb Code    20  components.o(i.rt_components_board_init)
    rt_components_init                       0x08002775   Thumb Code    20  components.o(i.rt_components_init)
    rt_device_find                           0x08002791   Thumb Code    82  device.o(i.rt_device_find)
    rt_device_open                           0x080027e3   Thumb Code   112  device.o(i.rt_device_open)
    rt_device_pin_register                   0x08002855   Thumb Code    56  pin.o(i.rt_device_pin_register)
    rt_device_read                           0x0800289d   Thumb Code    62  device.o(i.rt_device_read)
    rt_device_register                       0x080028db   Thumb Code    52  device.o(i.rt_device_register)
    rt_device_set_rx_indicate                0x0800290f   Thumb Code     8  device.o(i.rt_device_set_rx_indicate)
    rt_enter_critical                        0x08002919   Thumb Code    28  scheduler.o(i.rt_enter_critical)
    rt_exit_critical                         0x08002939   Thumb Code    60  scheduler.o(i.rt_exit_critical)
    rt_free                                  0x0800297d   Thumb Code    98  mem.o(i.rt_free)
    rt_hw_board_init                         0x080029f5   Thumb Code    52  drv_common.o(i.rt_hw_board_init)
    rt_hw_hard_fault_exception               0x08002a31   Thumb Code    32  cpuport.o(i.rt_hw_hard_fault_exception)
    rt_hw_pin_init                           0x08002a55   Thumb Code   198  drv_gpio.o(i.rt_hw_pin_init)
    rt_hw_serial_isr                         0x08002b29   Thumb Code   208  serial.o(i.rt_hw_serial_isr)
    rt_hw_serial_register                    0x08002bf9   Thumb Code    66  serial.o(i.rt_hw_serial_register)
    rt_hw_stack_init                         0x08002c55   Thumb Code    70  cpuport.o(i.rt_hw_stack_init)
    rt_hw_systick_init                       0x08002ca1   Thumb Code    38  drv_common.o(i.rt_hw_systick_init)
    rt_hw_usart_init                         0x08002cc9   Thumb Code   172  drv_usart.o(i.rt_hw_usart_init)
    rt_interrupt_enter                       0x08002d85   Thumb Code    26  irq.o(i.rt_interrupt_enter)
    rt_interrupt_get_nest                    0x08002da5   Thumb Code    22  irq.o(i.rt_interrupt_get_nest)
    rt_interrupt_leave                       0x08002dc1   Thumb Code    26  irq.o(i.rt_interrupt_leave)
    rt_malloc                                0x08002ef9   Thumb Code   336  mem.o(i.rt_malloc)
    rt_memset                                0x08003065   Thumb Code    72  kservice.o(i.rt_memset)
    rt_object_allocate                       0x080030ad   Thumb Code    84  object.o(i.rt_object_allocate)
    rt_object_delete                         0x08003101   Thumb Code    36  object.o(i.rt_object_delete)
    rt_object_detach                         0x08003125   Thumb Code    30  object.o(i.rt_object_detach)
    rt_object_get_information                0x08003145   Thumb Code    36  object.o(i.rt_object_get_information)
    rt_object_init                           0x0800316d   Thumb Code    86  object.o(i.rt_object_init)
    rt_object_is_systemobject                0x080031c3   Thumb Code    18  object.o(i.rt_object_is_systemobject)
    rt_pin_mode                              0x080031d5   Thumb Code    22  pin.o(i.rt_pin_mode)
    rt_pin_write                             0x080031f1   Thumb Code    22  pin.o(i.rt_pin_write)
    rt_schedule                              0x0800320d   Thumb Code   262  scheduler.o(i.rt_schedule)
    rt_schedule_insert_thread                0x08003329   Thumb Code   100  scheduler.o(i.rt_schedule_insert_thread)
    rt_schedule_remove_thread                0x08003399   Thumb Code    76  scheduler.o(i.rt_schedule_remove_thread)
    rt_sem_init                              0x080033ed   Thumb Code    38  ipc.o(i.rt_sem_init)
    rt_sem_release                           0x08003413   Thumb Code    58  ipc.o(i.rt_sem_release)
    rt_sem_take                              0x0800344d   Thumb Code   116  ipc.o(i.rt_sem_take)
    rt_set_errno                             0x080037fd   Thumb Code    36  kservice.o(i.rt_set_errno)
    rt_show_version                          0x08003825   Thumb Code     2  kservice.o(i.rt_show_version)
    rt_sprintf                               0x08003827   Thumb Code    34  kservice.o(i.rt_sprintf)
    rt_strlen                                0x08003849   Thumb Code    18  kservice.o(i.rt_strlen)
    rt_strncmp                               0x0800385b   Thumb Code    40  kservice.o(i.rt_strncmp)
    rt_strncpy                               0x08003883   Thumb Code    52  kservice.o(i.rt_strncpy)
    rt_system_heap_init                      0x080038b9   Thumb Code   146  mem.o(i.rt_system_heap_init)
    rt_system_scheduler_init                 0x08003969   Thumb Code    42  scheduler.o(i.rt_system_scheduler_init)
    rt_system_scheduler_start                0x080039a5   Thumb Code    36  scheduler.o(i.rt_system_scheduler_start)
    rt_system_timer_init                     0x080039cd   Thumb Code    24  timer.o(i.rt_system_timer_init)
    rt_system_timer_thread_init              0x080039e9   Thumb Code     2  timer.o(i.rt_system_timer_thread_init)
    rt_thread_create                         0x080039eb   Thumb Code    80  thread.o(i.rt_thread_create)
    rt_thread_exit                           0x08003a3d   Thumb Code    78  thread.o(i.rt_thread_exit)
    rt_thread_idle_excute                    0x08003a99   Thumb Code   134  idle.o(i.rt_thread_idle_excute)
    rt_thread_idle_init                      0x08003b25   Thumb Code    74  idle.o(i.rt_thread_idle_init)
    rt_thread_init                           0x08003b85   Thumb Code    52  thread.o(i.rt_thread_init)
    rt_thread_mdelay                         0x08003bb9   Thumb Code    20  thread.o(i.rt_thread_mdelay)
    rt_thread_resume                         0x08003bcd   Thumb Code    60  thread.o(i.rt_thread_resume)
    rt_thread_self                           0x08003c09   Thumb Code     6  thread.o(i.rt_thread_self)
    rt_thread_sleep                          0x08003c15   Thumb Code    64  thread.o(i.rt_thread_sleep)
    rt_thread_startup                        0x08003c55   Thumb Code    44  thread.o(i.rt_thread_startup)
    rt_thread_suspend                        0x08003c81   Thumb Code    72  thread.o(i.rt_thread_suspend)
    rt_thread_timeout                        0x08003cc9   Thumb Code    32  thread.o(i.rt_thread_timeout)
    rt_thread_yield                          0x08003ce9   Thumb Code    10  thread.o(i.rt_thread_yield)
    rt_tick_from_millisecond                 0x08003cf3   Thumb Code    56  clock.o(i.rt_tick_from_millisecond)
    rt_tick_get                              0x08003d2d   Thumb Code     6  clock.o(i.rt_tick_get)
    rt_tick_increase                         0x08003d39   Thumb Code    54  clock.o(i.rt_tick_increase)
    rt_timer_check                           0x08003d75   Thumb Code   118  timer.o(i.rt_timer_check)
    rt_timer_control                         0x08003df1   Thumb Code    56  timer.o(i.rt_timer_control)
    rt_timer_detach                          0x08003e29   Thumb Code    32  timer.o(i.rt_timer_detach)
    rt_timer_init                            0x08003e49   Thumb Code    46  timer.o(i.rt_timer_init)
    rt_timer_start                           0x08003e79   Thumb Code   238  timer.o(i.rt_timer_start)
    rt_timer_stop                            0x08003f71   Thumb Code    48  timer.o(i.rt_timer_stop)
    rt_vsnprintf                             0x08003fa1   Thumb Code   808  kservice.o(i.rt_vsnprintf)
    rt_vsprintf                              0x080042d1   Thumb Code    22  kservice.o(i.rt_vsprintf)
    rtthread_startup                         0x080042f7   Thumb Code    42  components.o(i.rtthread_startup)
    AHBPrescTable                            0x08004fa4   Data          16  system_stm32f1xx.o(.constdata)
    APBPrescTable                            0x08004fb4   Data           8  system_stm32f1xx.o(.constdata)
    __rt_init_rti_start                      0x08004fc4   Data           4  components.o(.rti_fn.0)
    __rt_init_rti_board_start                0x08004fc8   Data           4  components.o(.rti_fn.0.end)
    __rt_init_rti_board_end                  0x08004fcc   Data           4  components.o(.rti_fn.1.end)
    __rt_init_rti_end                        0x08004fd0   Data           4  components.o(.rti_fn.6.end)
    Region$$Table$$Base                      0x08004fd4   Number         0  anon$$obj.o(Region$$Table)
    Region$$Table$$Limit                     0x08004ff4   Number         0  anon$$obj.o(Region$$Table)
    Led_status                               0x20000000   Data           1  my_iap.o(.data)
    Jump_To_Application                      0x20000004   Data           4  my_iap.o(.data)
    JumpAddress                              0x20000008   Data           4  my_iap.o(.data)
    LastRunTime                              0x2000000c   Data           4  my_iap.o(.data)
    rxcnt                                    0x20000010   Data           4  my_iap.o(.data)
    iap_step                                 0x20000014   Data           1  my_iap.o(.data)
    rt_interrupt_from_thread                 0x2000001c   Data           4  cpuport.o(.data)
    rt_interrupt_to_thread                   0x20000020   Data           4  cpuport.o(.data)
    rt_thread_switch_interrupt_flag          0x20000024   Data           4  cpuport.o(.data)
    rt_interrupt_nest                        0x20000030   Data           1  irq.o(.data)
    rt_thread_ready_priority_group           0x200000b0   Data           4  scheduler.o(.data)
    rt_current_thread                        0x200000b8   Data           4  scheduler.o(.data)
    rt_current_priority                      0x200000bc   Data           1  scheduler.o(.data)
    rt_thread_defunct                        0x200000c0   Data           8  scheduler.o(.data)
    SystemCoreClock                          0x200001ac   Data           4  system_stm32f1xx.o(.data)
    uwTick                                   0x200001b0   Data           4  stm32f1xx_hal.o(.data)
    uwTickPrio                               0x200001b4   Data           4  stm32f1xx_hal.o(.data)
    uwTickFreq                               0x200001b8   Data           1  stm32f1xx_hal.o(.data)
    my_buffer                                0x200001c0   Data        2048  my_flash.o(.bss)
    MyIapMap                                 0x200009c0   Data          32  my_iap.o(.bss)
    MyIapFlag                                0x200009e0   Data          38  my_iap.o(.bss)
    rt_thread_priority_table                 0x20000ba8   Data         256  scheduler.o(.bss)
    pFlash                                   0x20000d48   Data          32  stm32f1xx_hal_flash.o(.bss)
    __libspace_start                         0x20000dac   Data          96  libspace.o(.bss)
    __temporary_stack_top$libspace           0x20000e0c   Data           0  libspace.o(.bss)
    Image$$RW_IRAM1$$ZI$$Limit               0x20001410   Number         0  anon$$obj.o ABSOLUTE



==============================================================================

Memory Map of the image

  Image Entry point : 0x08000131

  Load Region LR_IROM1 (Base: 0x08000000, Size: 0x000051b4, Max: 0x00040000, ABSOLUTE, COMPRESSED[0x00005044])

    Execution Region ER_IROM1 (Exec base: 0x08000000, Load base: 0x08000000, Size: 0x00004ff4, Max: 0x00040000, ABSOLUTE)

    Exec Addr    Load Addr    Size         Type   Attr      Idx    E Section Name        Object

    0x08000000   0x08000000   0x00000130   Data   RO         2220    RESET               startup_stm32f103xe.o
    0x08000130   0x08000130   0x00000008   Code   RO         4266  * !!!main             c_w.l(__main.o)
    0x08000138   0x08000138   0x00000034   Code   RO         4427    !!!scatter          c_w.l(__scatter.o)
    0x0800016c   0x0800016c   0x0000005a   Code   RO         4425    !!dczerorl2         c_w.l(__dczerorl2.o)
    0x080001c6   0x080001c6   0x00000002   PAD
    0x080001c8   0x080001c8   0x0000001c   Code   RO         4429    !!handler_zi        c_w.l(__scatter_zi.o)
    0x080001e4   0x080001e4   0x00000002   Code   RO         4295    .ARM.Collect$$libinit$$00000000  c_w.l(libinit.o)
    0x080001e6   0x080001e6   0x00000000   Code   RO         4302    .ARM.Collect$$libinit$$00000002  c_w.l(libinit2.o)
    0x080001e6   0x080001e6   0x00000000   Code   RO         4304    .ARM.Collect$$libinit$$00000004  c_w.l(libinit2.o)
    0x080001e6   0x080001e6   0x00000000   Code   RO         4307    .ARM.Collect$$libinit$$0000000A  c_w.l(libinit2.o)
    0x080001e6   0x080001e6   0x00000000   Code   RO         4309    .ARM.Collect$$libinit$$0000000C  c_w.l(libinit2.o)
    0x080001e6   0x080001e6   0x00000000   Code   RO         4311    .ARM.Collect$$libinit$$0000000E  c_w.l(libinit2.o)
    0x080001e6   0x080001e6   0x00000000   Code   RO         4314    .ARM.Collect$$libinit$$00000011  c_w.l(libinit2.o)
    0x080001e6   0x080001e6   0x00000000   Code   RO         4316    .ARM.Collect$$libinit$$00000013  c_w.l(libinit2.o)
    0x080001e6   0x080001e6   0x00000000   Code   RO         4318    .ARM.Collect$$libinit$$00000015  c_w.l(libinit2.o)
    0x080001e6   0x080001e6   0x00000000   Code   RO         4320    .ARM.Collect$$libinit$$00000017  c_w.l(libinit2.o)
    0x080001e6   0x080001e6   0x00000000   Code   RO         4322    .ARM.Collect$$libinit$$00000019  c_w.l(libinit2.o)
    0x080001e6   0x080001e6   0x00000000   Code   RO         4324    .ARM.Collect$$libinit$$0000001B  c_w.l(libinit2.o)
    0x080001e6   0x080001e6   0x00000000   Code   RO         4326    .ARM.Collect$$libinit$$0000001D  c_w.l(libinit2.o)
    0x080001e6   0x080001e6   0x00000000   Code   RO         4328    .ARM.Collect$$libinit$$0000001F  c_w.l(libinit2.o)
    0x080001e6   0x080001e6   0x00000000   Code   RO         4330    .ARM.Collect$$libinit$$00000021  c_w.l(libinit2.o)
    0x080001e6   0x080001e6   0x00000000   Code   RO         4332    .ARM.Collect$$libinit$$00000023  c_w.l(libinit2.o)
    0x080001e6   0x080001e6   0x00000000   Code   RO         4334    .ARM.Collect$$libinit$$00000025  c_w.l(libinit2.o)
    0x080001e6   0x080001e6   0x00000000   Code   RO         4338    .ARM.Collect$$libinit$$0000002C  c_w.l(libinit2.o)
    0x080001e6   0x080001e6   0x00000000   Code   RO         4340    .ARM.Collect$$libinit$$0000002E  c_w.l(libinit2.o)
    0x080001e6   0x080001e6   0x00000000   Code   RO         4342    .ARM.Collect$$libinit$$00000030  c_w.l(libinit2.o)
    0x080001e6   0x080001e6   0x00000000   Code   RO         4344    .ARM.Collect$$libinit$$00000032  c_w.l(libinit2.o)
    0x080001e6   0x080001e6   0x00000002   Code   RO         4345    .ARM.Collect$$libinit$$00000033  c_w.l(libinit2.o)
    0x080001e8   0x080001e8   0x00000002   Code   RO         4365    .ARM.Collect$$libshutdown$$00000000  c_w.l(libshutdown.o)
    0x080001ea   0x080001ea   0x00000000   Code   RO         4378    .ARM.Collect$$libshutdown$$00000002  c_w.l(libshutdown2.o)
    0x080001ea   0x080001ea   0x00000000   Code   RO         4380    .ARM.Collect$$libshutdown$$00000004  c_w.l(libshutdown2.o)
    0x080001ea   0x080001ea   0x00000000   Code   RO         4383    .ARM.Collect$$libshutdown$$00000007  c_w.l(libshutdown2.o)
    0x080001ea   0x080001ea   0x00000000   Code   RO         4386    .ARM.Collect$$libshutdown$$0000000A  c_w.l(libshutdown2.o)
    0x080001ea   0x080001ea   0x00000000   Code   RO         4388    .ARM.Collect$$libshutdown$$0000000C  c_w.l(libshutdown2.o)
    0x080001ea   0x080001ea   0x00000000   Code   RO         4391    .ARM.Collect$$libshutdown$$0000000F  c_w.l(libshutdown2.o)
    0x080001ea   0x080001ea   0x00000002   Code   RO         4392    .ARM.Collect$$libshutdown$$00000010  c_w.l(libshutdown2.o)
    0x080001ec   0x080001ec   0x00000000   Code   RO         4268    .ARM.Collect$$rtentry$$00000000  c_w.l(__rtentry.o)
    0x080001ec   0x080001ec   0x00000000   Code   RO         4272    .ARM.Collect$$rtentry$$00000002  c_w.l(__rtentry2.o)
    0x080001ec   0x080001ec   0x00000006   Code   RO         4284    .ARM.Collect$$rtentry$$00000004  c_w.l(__rtentry4.o)
    0x080001f2   0x080001f2   0x00000000   Code   RO         4274    .ARM.Collect$$rtentry$$00000009  c_w.l(__rtentry2.o)
    0x080001f2   0x080001f2   0x00000004   Code   RO         4275    .ARM.Collect$$rtentry$$0000000A  c_w.l(__rtentry2.o)
    0x080001f6   0x080001f6   0x00000000   Code   RO         4277    .ARM.Collect$$rtentry$$0000000C  c_w.l(__rtentry2.o)
    0x080001f6   0x080001f6   0x00000008   Code   RO         4278    .ARM.Collect$$rtentry$$0000000D  c_w.l(__rtentry2.o)
    0x080001fe   0x080001fe   0x00000002   Code   RO         4299    .ARM.Collect$$rtexit$$00000000  c_w.l(rtexit.o)
    0x08000200   0x08000200   0x00000000   Code   RO         4347    .ARM.Collect$$rtexit$$00000002  c_w.l(rtexit2.o)
    0x08000200   0x08000200   0x00000004   Code   RO         4348    .ARM.Collect$$rtexit$$00000003  c_w.l(rtexit2.o)
    0x08000204   0x08000204   0x00000006   Code   RO         4349    .ARM.Collect$$rtexit$$00000004  c_w.l(rtexit2.o)
    0x0800020a   0x0800020a   0x00000002   PAD
    0x0800020c   0x0800020c   0x00000010   Code   RO          656    .emb_text           cpuport.o
    0x0800021c   0x0800021c   0x000000f4   Code   RO          699    .text               context_rvds.o
    0x08000310   0x08000310   0x00000040   Code   RO         2221    .text               startup_stm32f103xe.o
    0x08000350   0x08000350   0x00000026   Code   RO         4258    .text               c_w.l(llushr.o)
    0x08000376   0x08000376   0x0000004e   Code   RO         4262    .text               c_w.l(rt_memclr_w.o)
    0x080003c4   0x080003c4   0x00000006   Code   RO         4264    .text               c_w.l(heapauxi.o)
    0x080003ca   0x080003ca   0x0000004a   Code   RO         4286    .text               c_w.l(sys_stackheap_outer.o)
    0x08000414   0x08000414   0x00000012   Code   RO         4288    .text               c_w.l(exit.o)
    0x08000426   0x08000426   0x00000002   PAD
    0x08000428   0x08000428   0x00000008   Code   RO         4296    .text               c_w.l(libspace.o)
    0x08000430   0x08000430   0x0000000c   Code   RO         4357    .text               c_w.l(sys_exit.o)
    0x0800043c   0x0800043c   0x00000002   Code   RO         4368    .text               c_w.l(use_no_semi.o)
    0x0800043e   0x0800043e   0x00000000   Code   RO         4370    .text               c_w.l(indicate_semi.o)
    0x0800043e   0x0800043e   0x0000000a   Code   RO          837    i.$Sub$$main        components.o
    0x08000448   0x08000448   0x0000002c   Code   RO         2265    i.DMA_SetConfig     stm32f1xx_hal_dma.o
    0x08000474   0x08000474   0x00000012   Code   RO         1903    i.EXTI0_IRQHandler  drv_gpio.o
    0x08000486   0x08000486   0x0000003c   Code   RO         1904    i.EXTI15_10_IRQHandler  drv_gpio.o
    0x080004c2   0x080004c2   0x00000012   Code   RO         1905    i.EXTI1_IRQHandler  drv_gpio.o
    0x080004d4   0x080004d4   0x00000012   Code   RO         1906    i.EXTI2_IRQHandler  drv_gpio.o
    0x080004e6   0x080004e6   0x00000012   Code   RO         1907    i.EXTI3_IRQHandler  drv_gpio.o
    0x080004f8   0x080004f8   0x00000012   Code   RO         1908    i.EXTI4_IRQHandler  drv_gpio.o
    0x0800050a   0x0800050a   0x0000002e   Code   RO         1909    i.EXTI9_5_IRQHandler  drv_gpio.o
    0x08000538   0x08000538   0x00000028   Code   RO         3532    i.FLASH_MassErase   stm32f1xx_hal_flash_ex.o
    0x08000560   0x08000560   0x00000028   Code   RO         3541    i.FLASH_PageErase   stm32f1xx_hal_flash_ex.o
    0x08000588   0x08000588   0x00000020   Code   RO         3429    i.FLASH_Program_HalfWord  stm32f1xx_hal_flash.o
    0x080005a8   0x080005a8   0x00000084   Code   RO         3430    i.FLASH_SetErrorCode  stm32f1xx_hal_flash.o
    0x0800062c   0x0800062c   0x00000070   Code   RO         3431    i.FLASH_WaitForLastOperation  stm32f1xx_hal_flash.o
    0x0800069c   0x0800069c   0x0000009c   Code   RO         2276    i.HAL_DMA_Start_IT  stm32f1xx_hal_dma.o
    0x08000738   0x08000738   0x000000b0   Code   RO         3542    i.HAL_FLASHEx_Erase  stm32f1xx_hal_flash_ex.o
    0x080007e8   0x080007e8   0x00000014   Code   RO         3435    i.HAL_FLASH_Lock    stm32f1xx_hal_flash.o
    0x080007fc   0x080007fc   0x000000b0   Code   RO         3440    i.HAL_FLASH_Program  stm32f1xx_hal_flash.o
    0x080008ac   0x080008ac   0x00000030   Code   RO         3442    i.HAL_FLASH_Unlock  stm32f1xx_hal_flash.o
    0x080008dc   0x080008dc   0x00000154   Code   RO         2978    i.HAL_GPIO_DeInit   stm32f1xx_hal_gpio.o
    0x08000a30   0x08000a30   0x0000003c   Code   RO         1910    i.HAL_GPIO_EXTI_Callback  drv_gpio.o
    0x08000a6c   0x08000a6c   0x0000001c   Code   RO         2980    i.HAL_GPIO_EXTI_IRQHandler  stm32f1xx_hal_gpio.o
    0x08000a88   0x08000a88   0x00000340   Code   RO         2981    i.HAL_GPIO_Init     stm32f1xx_hal_gpio.o
    0x08000dc8   0x08000dc8   0x00000010   Code   RO         2983    i.HAL_GPIO_ReadPin  stm32f1xx_hal_gpio.o
    0x08000dd8   0x08000dd8   0x0000000c   Code   RO         2985    i.HAL_GPIO_WritePin  stm32f1xx_hal_gpio.o
    0x08000de4   0x08000de4   0x00000012   Code   RO         2135    i.HAL_GetTick       drv_common.o
    0x08000df6   0x08000df6   0x00000002   PAD
    0x08000df8   0x08000df8   0x00000018   Code   RO         2785    i.HAL_IncTick       stm32f1xx_hal.o
    0x08000e10   0x08000e10   0x00000028   Code   RO         2786    i.HAL_Init          stm32f1xx_hal.o
    0x08000e38   0x08000e38   0x00000006   Code   RO         2136    i.HAL_InitTick      drv_common.o
    0x08000e3e   0x08000e3e   0x00000002   PAD
    0x08000e40   0x08000e40   0x00000054   Code   RO          434    i.HAL_MspInit       stm32f1xx_hal_msp.o
    0x08000e94   0x08000e94   0x00000044   Code   RO         2361    i.HAL_NVIC_DisableIRQ  stm32f1xx_hal_cortex.o
    0x08000ed8   0x08000ed8   0x00000020   Code   RO         2362    i.HAL_NVIC_EnableIRQ  stm32f1xx_hal_cortex.o
    0x08000ef8   0x08000ef8   0x0000007c   Code   RO         2368    i.HAL_NVIC_SetPriority  stm32f1xx_hal_cortex.o
    0x08000f74   0x08000f74   0x00000028   Code   RO         2369    i.HAL_NVIC_SetPriorityGrouping  stm32f1xx_hal_cortex.o
    0x08000f9c   0x08000f9c   0x0000018c   Code   RO         2626    i.HAL_RCC_ClockConfig  stm32f1xx_hal_rcc.o
    0x08001128   0x08001128   0x0000000c   Code   RO         2631    i.HAL_RCC_GetHCLKFreq  stm32f1xx_hal_rcc.o
    0x08001134   0x08001134   0x00000020   Code   RO         2633    i.HAL_RCC_GetPCLK1Freq  stm32f1xx_hal_rcc.o
    0x08001154   0x08001154   0x00000020   Code   RO         2634    i.HAL_RCC_GetPCLK2Freq  stm32f1xx_hal_rcc.o
    0x08001174   0x08001174   0x00000094   Code   RO         2635    i.HAL_RCC_GetSysClockFreq  stm32f1xx_hal_rcc.o
    0x08001208   0x08001208   0x00000464   Code   RO         2638    i.HAL_RCC_OscConfig  stm32f1xx_hal_rcc.o
    0x0800166c   0x0800166c   0x00000028   Code   RO         2371    i.HAL_SYSTICK_CLKSourceConfig  stm32f1xx_hal_cortex.o
    0x08001694   0x08001694   0x00000034   Code   RO         2373    i.HAL_SYSTICK_Config  stm32f1xx_hal_cortex.o
    0x080016c8   0x080016c8   0x00000002   Code   RO         3101    i.HAL_UART_ErrorCallback  stm32f1xx_hal_uart.o
    0x080016ca   0x080016ca   0x00000072   Code   RO         3105    i.HAL_UART_Init     stm32f1xx_hal_uart.o
    0x0800173c   0x0800173c   0x00000088   Code   RO          441    i.HAL_UART_MspInit  stm32f1xx_hal_msp.o
    0x080017c4   0x080017c4   0x0000009c   Code   RO         3114    i.HAL_UART_Transmit_DMA  stm32f1xx_hal_uart.o
    0x08001860   0x08001860   0x00000002   Code   RO         3116    i.HAL_UART_TxCpltCallback  stm32f1xx_hal_uart.o
    0x08001862   0x08001862   0x00000002   Code   RO         3117    i.HAL_UART_TxHalfCpltCallback  stm32f1xx_hal_uart.o
    0x08001864   0x08001864   0x0000003c   Code   RO          307    i.Iap_Map_Init      my_iap.o
    0x080018a0   0x080018a0   0x00000124   Code   RO          308    i.LedRun            my_iap.o
    0x080019c4   0x080019c4   0x00000058   Code   RO          309    i.MX_GPIO_Init      my_iap.o
    0x08001a1c   0x08001a1c   0x00000028   Code   RO         2639    i.RCC_Delay         stm32f1xx_hal_rcc.o
    0x08001a44   0x08001a44   0x00000014   Code   RO         2139    i.SysTick_Handler   drv_common.o
    0x08001a58   0x08001a58   0x00000080   Code   RO         1879    i.SystemClock_Config  board.o
    0x08001ad8   0x08001ad8   0x00000058   Code   RO         2229    i.SystemInit        system_stm32f1xx.o
    0x08001b30   0x08001b30   0x00000050   Code   RO         3119    i.UART_DMAError     stm32f1xx_hal_uart.o
    0x08001b80   0x08001b80   0x00000036   Code   RO         3124    i.UART_DMATransmitCplt  stm32f1xx_hal_uart.o
    0x08001bb6   0x08001bb6   0x0000000e   Code   RO         3126    i.UART_DMATxHalfCplt  stm32f1xx_hal_uart.o
    0x08001bc4   0x08001bc4   0x00000020   Code   RO         3128    i.UART_EndRxTransfer  stm32f1xx_hal_uart.o
    0x08001be4   0x08001be4   0x00000014   Code   RO         3130    i.UART_EndTxTransfer  stm32f1xx_hal_uart.o
    0x08001bf8   0x08001bf8   0x000001a0   Code   RO         3132    i.UART_SetConfig    stm32f1xx_hal_uart.o
    0x08001d98   0x08001d98   0x00000018   Code   RO         2018    i.USART1_IRQHandler  drv_usart.o
    0x08001db0   0x08001db0   0x00000004   Code   RO         2140    i._Error_Handler    drv_common.o
    0x08001db4   0x08001db4   0x00000010   Code   RO         2375    i.__NVIC_GetPriorityGrouping  stm32f1xx_hal_cortex.o
    0x08001dc4   0x08001dc4   0x00000028   Code   RO         2376    i.__NVIC_SetPriority  stm32f1xx_hal_cortex.o
    0x08001dec   0x08001dec   0x00000028   Code   RO         1561    i._get_highest_priority_thread  scheduler.o
    0x08001e14   0x08001e14   0x00000014   Code   RO         1047    i._has_defunct_thread  idle.o
    0x08001e28   0x08001e28   0x00000028   Code   RO         3635    i._pin_control      pin.o
    0x08001e50   0x08001e50   0x0000002e   Code   RO         3636    i._pin_read         pin.o
    0x08001e7e   0x08001e7e   0x0000002e   Code   RO         3637    i._pin_write        pin.o
    0x08001eac   0x08001eac   0x00000084   Code   RO         1648    i._rt_thread_init   thread.o
    0x08001f30   0x08001f30   0x00000042   Code   RO         1769    i._rt_timer_init    timer.o
    0x08001f72   0x08001f72   0x0000002e   Code   RO         1770    i._rt_timer_remove  timer.o
    0x08001fa0   0x08001fa0   0x00000014   Code   RO         3700    i._serial_check_buffer_size  serial.o
    0x08001fb4   0x08001fb4   0x00000070   Code   RO         3701    i._serial_int_rx    serial.o
    0x08002024   0x08002024   0x0000001e   Code   RO         1911    i.bit2bitno         drv_gpio.o
    0x08002042   0x08002042   0x00000002   PAD
    0x08002044   0x08002044   0x00000034   Code   RO          310    i.dev_iap_uart_func  my_iap.o
    0x08002078   0x08002078   0x00000024   Code   RO         1912    i.get_pin           drv_gpio.o
    0x0800209c   0x0800209c   0x00000058   Code   RO          311    i.iap_jump_to_user_app  my_iap.o
    0x080020f4   0x080020f4   0x000000b0   Code   RO          312    i.iap_main_entry    my_iap.o
    0x080021a4   0x080021a4   0x00000080   Code   RO          219    i.iap_re_write_user_code  my_flash.o
    0x08002224   0x08002224   0x00000078   Code   RO          313    i.iap_thread_init   my_iap.o
    0x0800229c   0x0800229c   0x0000000e   Code   RO          314    i.led_display_entry  my_iap.o
    0x080022aa   0x080022aa   0x0000003c   Code   RO            4    i.main              main.o
    0x080022e6   0x080022e6   0x0000000e   Code   RO          838    i.main_thread_entry  components.o
    0x080022f4   0x080022f4   0x00000034   Code   RO          220    i.my_calculate_page_num  my_flash.o
    0x08002328   0x08002328   0x00000048   Code   RO          221    i.my_erase_pages    my_flash.o
    0x08002370   0x08002370   0x00000058   Code   RO          222    i.my_erase_write_to_flash  my_flash.o
    0x080023c8   0x080023c8   0x0000001a   Code   RO          225    i.my_read_from_flash  my_flash.o
    0x080023e2   0x080023e2   0x00000002   PAD
    0x080023e4   0x080023e4   0x00000050   Code   RO          226    i.my_write_to_flash  my_flash.o
    0x08002434   0x08002434   0x00000078   Code   RO         1436    i.plug_holes        mem.o
    0x080024ac   0x080024ac   0x00000198   Code   RO         1286    i.print_number      kservice.o
    0x08002644   0x08002644   0x00000030   Code   RO          839    i.rt_application_init  components.o
    0x08002674   0x08002674   0x00000048   Code   RO         3762    i.rt_completion_done  completion.o
    0x080026bc   0x080026bc   0x0000001e   Code   RO         3763    i.rt_completion_init  completion.o
    0x080026da   0x080026da   0x0000007e   Code   RO         3764    i.rt_completion_wait  completion.o
    0x08002758   0x08002758   0x0000001c   Code   RO          840    i.rt_components_board_init  components.o
    0x08002774   0x08002774   0x0000001c   Code   RO          841    i.rt_components_init  components.o
    0x08002790   0x08002790   0x00000052   Code   RO          961    i.rt_device_find    device.o
    0x080027e2   0x080027e2   0x00000070   Code   RO          964    i.rt_device_open    device.o
    0x08002852   0x08002852   0x00000002   PAD
    0x08002854   0x08002854   0x00000048   Code   RO         3638    i.rt_device_pin_register  pin.o
    0x0800289c   0x0800289c   0x0000003e   Code   RO          965    i.rt_device_read    device.o
    0x080028da   0x080028da   0x00000034   Code   RO          966    i.rt_device_register  device.o
    0x0800290e   0x0800290e   0x00000008   Code   RO          967    i.rt_device_set_rx_indicate  device.o
    0x08002916   0x08002916   0x00000002   PAD
    0x08002918   0x08002918   0x00000020   Code   RO         1563    i.rt_enter_critical  scheduler.o
    0x08002938   0x08002938   0x00000044   Code   RO         1564    i.rt_exit_critical  scheduler.o
    0x0800297c   0x0800297c   0x00000078   Code   RO         1438    i.rt_free           mem.o
    0x080029f4   0x080029f4   0x0000003c   Code   RO         2141    i.rt_hw_board_init  drv_common.o
    0x08002a30   0x08002a30   0x00000024   Code   RO          660    i.rt_hw_hard_fault_exception  cpuport.o
    0x08002a54   0x08002a54   0x000000d4   Code   RO         1913    i.rt_hw_pin_init    drv_gpio.o
    0x08002b28   0x08002b28   0x000000d0   Code   RO         3702    i.rt_hw_serial_isr  serial.o
    0x08002bf8   0x08002bf8   0x0000005c   Code   RO         3703    i.rt_hw_serial_register  serial.o
    0x08002c54   0x08002c54   0x0000004c   Code   RO          661    i.rt_hw_stack_init  cpuport.o
    0x08002ca0   0x08002ca0   0x00000026   Code   RO         2142    i.rt_hw_systick_init  drv_common.o
    0x08002cc6   0x08002cc6   0x00000002   PAD
    0x08002cc8   0x08002cc8   0x000000bc   Code   RO         2019    i.rt_hw_usart_init  drv_usart.o
    0x08002d84   0x08002d84   0x00000020   Code   RO         1258    i.rt_interrupt_enter  irq.o
    0x08002da4   0x08002da4   0x0000001c   Code   RO         1259    i.rt_interrupt_get_nest  irq.o
    0x08002dc0   0x08002dc0   0x00000020   Code   RO         1260    i.rt_interrupt_leave  irq.o
    0x08002de0   0x08002de0   0x00000014   Code   RO         1094    i.rt_ipc_list_resume  ipc.o
    0x08002df4   0x08002df4   0x0000006c   Code   RO         1096    i.rt_ipc_list_suspend  ipc.o
    0x08002e60   0x08002e60   0x00000010   Code   RO         1097    i.rt_ipc_object_init  ipc.o
    0x08002e70   0x08002e70   0x00000006   Code   RO         1565    i.rt_list_init      scheduler.o
    0x08002e76   0x08002e76   0x00000006   Code   RO         1771    i.rt_list_init      timer.o
    0x08002e7c   0x08002e7c   0x0000000e   Code   RO         1486    i.rt_list_insert_after  object.o
    0x08002e8a   0x08002e8a   0x0000000e   Code   RO         1649    i.rt_list_insert_after  thread.o
    0x08002e98   0x08002e98   0x0000000e   Code   RO         1772    i.rt_list_insert_after  timer.o
    0x08002ea6   0x08002ea6   0x0000000e   Code   RO         1098    i.rt_list_insert_before  ipc.o
    0x08002eb4   0x08002eb4   0x00000010   Code   RO         1099    i.rt_list_isempty   ipc.o
    0x08002ec4   0x08002ec4   0x00000010   Code   RO         1773    i.rt_list_isempty   timer.o
    0x08002ed4   0x08002ed4   0x00000012   Code   RO         1487    i.rt_list_remove    object.o
    0x08002ee6   0x08002ee6   0x00000012   Code   RO         1650    i.rt_list_remove    thread.o
    0x08002ef8   0x08002ef8   0x0000016c   Code   RO         1439    i.rt_malloc         mem.o
    0x08003064   0x08003064   0x00000048   Code   RO         1293    i.rt_memset         kservice.o
    0x080030ac   0x080030ac   0x00000054   Code   RO         1488    i.rt_object_allocate  object.o
    0x08003100   0x08003100   0x00000024   Code   RO         1489    i.rt_object_delete  object.o
    0x08003124   0x08003124   0x0000001e   Code   RO         1490    i.rt_object_detach  object.o
    0x08003142   0x08003142   0x00000002   PAD
    0x08003144   0x08003144   0x00000028   Code   RO         1492    i.rt_object_get_information  object.o
    0x0800316c   0x0800316c   0x00000056   Code   RO         1494    i.rt_object_init    object.o
    0x080031c2   0x080031c2   0x00000012   Code   RO         1495    i.rt_object_is_systemobject  object.o
    0x080031d4   0x080031d4   0x0000001c   Code   RO         3642    i.rt_pin_mode       pin.o
    0x080031f0   0x080031f0   0x0000001c   Code   RO         3644    i.rt_pin_write      pin.o
    0x0800320c   0x0800320c   0x0000011c   Code   RO         1566    i.rt_schedule       scheduler.o
    0x08003328   0x08003328   0x00000070   Code   RO         1567    i.rt_schedule_insert_thread  scheduler.o
    0x08003398   0x08003398   0x00000054   Code   RO         1568    i.rt_schedule_remove_thread  scheduler.o
    0x080033ec   0x080033ec   0x00000026   Code   RO         1111    i.rt_sem_init       ipc.o
    0x08003412   0x08003412   0x0000003a   Code   RO         1112    i.rt_sem_release    ipc.o
    0x0800344c   0x0800344c   0x00000074   Code   RO         1113    i.rt_sem_take       ipc.o
    0x080034c0   0x080034c0   0x0000006c   Code   RO         3704    i.rt_serial_close   serial.o
    0x0800352c   0x0800352c   0x00000082   Code   RO         3705    i.rt_serial_control  serial.o
    0x080035ae   0x080035ae   0x00000026   Code   RO         3706    i.rt_serial_init    serial.o
    0x080035d4   0x080035d4   0x0000012c   Code   RO         3707    i.rt_serial_open    serial.o
    0x08003700   0x08003700   0x00000062   Code   RO         3708    i.rt_serial_read    serial.o
    0x08003762   0x08003762   0x0000009a   Code   RO         3709    i.rt_serial_write   serial.o
    0x080037fc   0x080037fc   0x00000028   Code   RO         1294    i.rt_set_errno      kservice.o
    0x08003824   0x08003824   0x00000002   Code   RO         1295    i.rt_show_version   kservice.o
    0x08003826   0x08003826   0x00000022   Code   RO         1297    i.rt_sprintf        kservice.o
    0x08003848   0x08003848   0x00000012   Code   RO         1301    i.rt_strlen         kservice.o
    0x0800385a   0x0800385a   0x00000028   Code   RO         1302    i.rt_strncmp        kservice.o
    0x08003882   0x08003882   0x00000034   Code   RO         1303    i.rt_strncpy        kservice.o
    0x080038b6   0x080038b6   0x00000002   PAD
    0x080038b8   0x080038b8   0x000000b0   Code   RO         1442    i.rt_system_heap_init  mem.o
    0x08003968   0x08003968   0x0000003c   Code   RO         1569    i.rt_system_scheduler_init  scheduler.o
    0x080039a4   0x080039a4   0x00000028   Code   RO         1570    i.rt_system_scheduler_start  scheduler.o
    0x080039cc   0x080039cc   0x0000001c   Code   RO         1774    i.rt_system_timer_init  timer.o
    0x080039e8   0x080039e8   0x00000002   Code   RO         1775    i.rt_system_timer_thread_init  timer.o
    0x080039ea   0x080039ea   0x00000050   Code   RO         1652    i.rt_thread_create  thread.o
    0x08003a3a   0x08003a3a   0x00000002   PAD
    0x08003a3c   0x08003a3c   0x00000054   Code   RO         1656    i.rt_thread_exit    thread.o
    0x08003a90   0x08003a90   0x00000008   Code   RO         1048    i.rt_thread_idle_entry  idle.o
    0x08003a98   0x08003a98   0x0000008c   Code   RO         1049    i.rt_thread_idle_excute  idle.o
    0x08003b24   0x08003b24   0x00000060   Code   RO         1051    i.rt_thread_idle_init  idle.o
    0x08003b84   0x08003b84   0x00000034   Code   RO         1658    i.rt_thread_init    thread.o
    0x08003bb8   0x08003bb8   0x00000014   Code   RO         1659    i.rt_thread_mdelay  thread.o
    0x08003bcc   0x08003bcc   0x0000003c   Code   RO         1660    i.rt_thread_resume  thread.o
    0x08003c08   0x08003c08   0x0000000c   Code   RO         1661    i.rt_thread_self    thread.o
    0x08003c14   0x08003c14   0x00000040   Code   RO         1662    i.rt_thread_sleep   thread.o
    0x08003c54   0x08003c54   0x0000002c   Code   RO         1663    i.rt_thread_startup  thread.o
    0x08003c80   0x08003c80   0x00000048   Code   RO         1664    i.rt_thread_suspend  thread.o
    0x08003cc8   0x08003cc8   0x00000020   Code   RO         1665    i.rt_thread_timeout  thread.o
    0x08003ce8   0x08003ce8   0x0000000a   Code   RO         1666    i.rt_thread_yield   thread.o
    0x08003cf2   0x08003cf2   0x00000038   Code   RO          794    i.rt_tick_from_millisecond  clock.o
    0x08003d2a   0x08003d2a   0x00000002   PAD
    0x08003d2c   0x08003d2c   0x0000000c   Code   RO          795    i.rt_tick_get       clock.o
    0x08003d38   0x08003d38   0x0000003c   Code   RO          796    i.rt_tick_increase  clock.o
    0x08003d74   0x08003d74   0x0000007c   Code   RO         1776    i.rt_timer_check    timer.o
    0x08003df0   0x08003df0   0x00000038   Code   RO         1777    i.rt_timer_control  timer.o
    0x08003e28   0x08003e28   0x00000020   Code   RO         1780    i.rt_timer_detach   timer.o
    0x08003e48   0x08003e48   0x0000002e   Code   RO         1781    i.rt_timer_init     timer.o
    0x08003e76   0x08003e76   0x00000002   PAD
    0x08003e78   0x08003e78   0x000000f8   Code   RO         1784    i.rt_timer_start    timer.o
    0x08003f70   0x08003f70   0x00000030   Code   RO         1785    i.rt_timer_stop     timer.o
    0x08003fa0   0x08003fa0   0x00000330   Code   RO         1306    i.rt_vsnprintf      kservice.o
    0x080042d0   0x080042d0   0x00000016   Code   RO         1307    i.rt_vsprintf       kservice.o
    0x080042e6   0x080042e6   0x00000004   Code   RO          842    i.rti_board_end     components.o
    0x080042ea   0x080042ea   0x00000004   Code   RO          843    i.rti_board_start   components.o
    0x080042ee   0x080042ee   0x00000004   Code   RO          844    i.rti_end           components.o
    0x080042f2   0x080042f2   0x00000004   Code   RO          845    i.rti_start         components.o
    0x080042f6   0x080042f6   0x0000002a   Code   RO          846    i.rtthread_startup  components.o
    0x08004320   0x08004320   0x00000026   Code   RO         1308    i.skip_atoi         kservice.o
    0x08004346   0x08004346   0x000000ac   Code   RO         2020    i.stm32_configure   drv_usart.o
    0x080043f2   0x080043f2   0x00000002   PAD
    0x080043f4   0x080043f4   0x00000094   Code   RO         2021    i.stm32_control     drv_usart.o
    0x08004488   0x08004488   0x00000034   Code   RO         2022    i.stm32_dma_transmit  drv_usart.o
    0x080044bc   0x080044bc   0x0000001c   Code   RO         2023    i.stm32_getc        drv_usart.o
    0x080044d8   0x080044d8   0x000000dc   Code   RO         1914    i.stm32_pin_attach_irq  drv_gpio.o
    0x080045b4   0x080045b4   0x0000008c   Code   RO         1915    i.stm32_pin_dettach_irq  drv_gpio.o
    0x08004640   0x08004640   0x0000018c   Code   RO         1916    i.stm32_pin_irq_enable  drv_gpio.o
    0x080047cc   0x080047cc   0x00000074   Code   RO         1917    i.stm32_pin_mode    drv_gpio.o
    0x08004840   0x08004840   0x0000002a   Code   RO         1918    i.stm32_pin_read    drv_gpio.o
    0x0800486a   0x0800486a   0x00000028   Code   RO         1919    i.stm32_pin_write   drv_gpio.o
    0x08004892   0x08004892   0x00000028   Code   RO         2024    i.stm32_putc        drv_usart.o
    0x080048ba   0x080048ba   0x00000002   PAD
    0x080048bc   0x080048bc   0x00000010   Code   RO         2025    i.stm32_uart_get_dma_config  drv_usart.o
    0x080048cc   0x080048cc   0x00000102   Code   RO         2026    i.uart_isr          drv_usart.o
    0x080049ce   0x080049ce   0x00000022   Data   RO         1309    .constdata          kservice.o
    0x080049f0   0x080049f0   0x00000598   Data   RO         1920    .constdata          drv_gpio.o
    0x08004f88   0x08004f88   0x0000001c   Data   RO         2028    .constdata          drv_usart.o
    0x08004fa4   0x08004fa4   0x00000018   Data   RO         2230    .constdata          system_stm32f1xx.o
    0x08004fbc   0x08004fbc   0x00000006   Data   RO         2029    .conststring        drv_usart.o
    0x08004fc2   0x08004fc2   0x00000002   PAD
    0x08004fc4   0x08004fc4   0x00000004   Data   RO          847    .rti_fn.0           components.o
    0x08004fc8   0x08004fc8   0x00000004   Data   RO          848    .rti_fn.0.end       components.o
    0x08004fcc   0x08004fcc   0x00000004   Data   RO          849    .rti_fn.1.end       components.o
    0x08004fd0   0x08004fd0   0x00000004   Data   RO          850    .rti_fn.6.end       components.o
    0x08004fd4   0x08004fd4   0x00000020   Data   RO         4423    Region$$Table       anon$$obj.o


    Execution Region RW_IRAM1 (Exec base: 0x20000000, Load base: 0x08004ff4, Size: 0x00001410, Max: 0x0000c000, ABSOLUTE, COMPRESSED[0x00000050])

    Exec Addr    Load Addr    Size         Type   Attr      Idx    E Section Name        Object

    0x20000000   COMPRESSED   0x0000001c   Data   RW          317    .data               my_iap.o
    0x2000001c   COMPRESSED   0x00000010   Data   RW          662    .data               cpuport.o
    0x2000002c   COMPRESSED   0x00000004   Data   RW          798    .data               clock.o
    0x20000030   COMPRESSED   0x00000001   Data   RW         1261    .data               irq.o
    0x20000031   COMPRESSED   0x00000003   PAD
    0x20000034   COMPRESSED   0x00000004   Data   RW         1310    .data               kservice.o
    0x20000038   COMPRESSED   0x00000018   Data   RW         1444    .data               mem.o
    0x20000050   COMPRESSED   0x00000060   Data   RW         1497    .data               object.o
    0x200000b0   COMPRESSED   0x00000018   Data   RW         1572    .data               scheduler.o
    0x200000c8   COMPRESSED   0x0000000c   Data   RW         1786    .data               timer.o
    0x200000d4   COMPRESSED   0x000000c4   Data   RW         1921    .data               drv_gpio.o
    0x20000198   COMPRESSED   0x00000014   Data   RW         2030    .data               drv_usart.o
    0x200001ac   COMPRESSED   0x00000004   Data   RW         2231    .data               system_stm32f1xx.o
    0x200001b0   COMPRESSED   0x00000009   Data   RW         2793    .data               stm32f1xx_hal.o
    0x200001b9   COMPRESSED   0x00000003   PAD
    0x200001bc   COMPRESSED   0x00000004   Data   RW         3710    .data               serial.o
    0x200001c0        -       0x00000800   Zero   RW          227    .bss                my_flash.o
    0x200009c0        -       0x00000046   Zero   RW          316    .bss                my_iap.o
    0x20000a06   COMPRESSED   0x00000002   PAD
    0x20000a08        -       0x00000180   Zero   RW         1052    .bss                idle.o
    0x20000b88        -       0x00000020   Zero   RW         1443    .bss                mem.o
    0x20000ba8        -       0x00000100   Zero   RW         1571    .bss                scheduler.o
    0x20000ca8        -       0x0000009c   Zero   RW         2027    .bss                drv_usart.o
    0x20000d44   COMPRESSED   0x00000004   PAD
    0x20000d48        -       0x00000020   Zero   RW         3443    .bss                stm32f1xx_hal_flash.o
    0x20000d68        -       0x00000044   Zero   RW         3645    .bss                pin.o
    0x20000dac        -       0x00000060   Zero   RW         4297    .bss                c_w.l(libspace.o)
    0x20000e0c   COMPRESSED   0x00000004   PAD
    0x20000e10        -       0x00000200   Zero   RW         2219    HEAP                startup_stm32f103xe.o
    0x20001010        -       0x00000400   Zero   RW         2218    STACK               startup_stm32f103xe.o


==============================================================================

Image component sizes


      Code (inc. data)   RO Data    RW Data    ZI Data      Debug   Object Name

       128         18          0          0          0        613   board.o
       128         12          0          4          0       1692   clock.o
       228          0          0          0          0       5355   completion.o
       186         30         16          0          0      11152   components.o
       244         26          0          0          0        776   context_rvds.o
       128         10          0         16          0       3546   cpuport.o
       316          0          0          0          0       3992   device.o
       146          8          0          0          0       6864   drv_common.o
      1488         60       1432        196          0      12025   drv_gpio.o
       926         32         34         20        156      33702   drv_usart.o
       264         32          0          0        384       5506   idle.o
       386          0          0          0          0       7665   ipc.o
        92         18          0          1          0       2030   irq.o
      1542         20         34          4          0       9737   kservice.o
        60          0          0          0          0     433231   main.o
       780         92          0         24         32       3744   mem.o
       446         28          0          0       2048       5537   my_flash.o
       890        112          0         28         70      10804   my_iap.o
       326          4          0         96          0       8060   object.o
       260         28          0          0         68       4822   pin.o
       726         86          0         24        256       8950   scheduler.o
      1260         32          0          4          0       9339   serial.o
        64         26        304          0       1536        936   startup_stm32f103xe.o
        64         14          0          9          0       4980   stm32f1xx_hal.o
       412         28          0          0          0      31131   stm32f1xx_hal_cortex.o
       200          0          0          0          0       2059   stm32f1xx_hal_dma.o
       520         48          0          0         32       4630   stm32f1xx_hal_flash.o
       256         26          0          0          0       2843   stm32f1xx_hal_flash_ex.o
      1228         78          0          0          0       5124   stm32f1xx_hal_gpio.o
       220         22          0          0          0     511957   stm32f1xx_hal_msp.o
      1784        110          0          0          0       6324   stm32f1xx_hal_rcc.o
       892         18          0          0          0       7453   stm32f1xx_hal_uart.o
        88         18         24          4          0       1507   system_stm32f1xx.o
       694         20          0          0          0      11244   thread.o
       732         20          0         12          0      10764   timer.o

    ----------------------------------------------------------------------
     18132       1076       1878        448       4588    1190094   Object Totals
         0          0         32          0          0          0   (incl. Generated)
        28          0          2          6          6          0   (incl. Padding)

    ----------------------------------------------------------------------

      Code (inc. data)   RO Data    RW Data    ZI Data      Debug   Library Member Name

        90          0          0          0          0          0   __dczerorl2.o
         8          0          0          0          0         68   __main.o
         0          0          0          0          0          0   __rtentry.o
        12          0          0          0          0          0   __rtentry2.o
         6          0          0          0          0          0   __rtentry4.o
        52          8          0          0          0          0   __scatter.o
        28          0          0          0          0          0   __scatter_zi.o
        18          0          0          0          0         80   exit.o
         6          0          0          0          0        152   heapauxi.o
         0          0          0          0          0          0   indicate_semi.o
         2          0          0          0          0          0   libinit.o
         2          0          0          0          0          0   libinit2.o
         2          0          0          0          0          0   libshutdown.o
         2          0          0          0          0          0   libshutdown2.o
         8          4          0          0         96         68   libspace.o
        38          0          0          0          0         68   llushr.o
        78          0          0          0          0         80   rt_memclr_w.o
         2          0          0          0          0          0   rtexit.o
        10          0          0          0          0          0   rtexit2.o
        12          4          0          0          0         68   sys_exit.o
        74          0          0          0          0         80   sys_stackheap_outer.o
         2          0          0          0          0         68   use_no_semi.o

    ----------------------------------------------------------------------
       458         16          0          0        100        732   Library Totals
         6          0          0          0          4          0   (incl. Padding)

    ----------------------------------------------------------------------

      Code (inc. data)   RO Data    RW Data    ZI Data      Debug   Library Name

       452         16          0          0         96        732   c_w.l

    ----------------------------------------------------------------------
       458         16          0          0        100        732   Library Totals

    ----------------------------------------------------------------------

==============================================================================


      Code (inc. data)   RO Data    RW Data    ZI Data      Debug   

     18590       1092       1878        448       4688    1179954   Grand Totals
     18590       1092       1878         80       4688    1179954   ELF Image Totals (compressed)
     18590       1092       1878         80          0          0   ROM Totals

==============================================================================

    Total RO  Size (Code + RO Data)                20468 (  19.99kB)
    Total RW  Size (RW Data + ZI Data)              5136 (   5.02kB)
    Total ROM Size (Code + RO Data + RW Data)      20548 (  20.07kB)

==============================================================================

